CCS PCH C Compiler, Version 5.008, 5967               02-Dec-14 00:33

               Filename:   C:\Users\JASPHER\MPLABXProjects\MultiTaskCCS.X\dist\default\production\MT.lst

               ROM used:   6270 bytes (19%)
                           Largest free fragment is 14078
               RAM used:   124 (6%) at main() level
                           167 (8%) worst case
               Stack used: 6 locations (2 in main + 4 for interrupts)
               Stack size: 31

*
0000:  GOTO   0AFE
*
0008:  MOVWF  04
000A:  MOVFF  FD8,05
000E:  MOVFF  FE0,06
0012:  MOVLB  0
0014:  MOVFF  FE9,0C
0018:  MOVFF  FEA,07
001C:  MOVFF  FE1,08
0020:  MOVFF  FE2,09
0024:  MOVFF  FD9,0A
0028:  MOVFF  FDA,0B
002C:  MOVFF  FF3,12
0030:  MOVFF  FF4,13
0034:  MOVFF  FFA,14
0038:  MOVFF  00,0E
003C:  MOVFF  01,0F
0040:  MOVFF  02,10
0044:  MOVFF  03,11
0048:  BTFSS  FF2.5
004A:  GOTO   0054
004E:  BTFSC  FF2.2
0050:  GOTO   022C
0054:  BTFSS  F9D.0
0056:  GOTO   0060
005A:  BTFSC  F9E.0
005C:  GOTO   03BC
0060:  BTFSS  F9D.5
0062:  GOTO   006C
0066:  BTFSC  F9E.5
0068:  GOTO   0556
006C:  MOVFF  0E,00
0070:  MOVFF  0F,01
0074:  MOVFF  10,02
0078:  MOVFF  11,03
007C:  MOVFF  0C,FE9
0080:  MOVFF  07,FEA
0084:  BSF    07.7
0086:  MOVFF  08,FE1
008A:  MOVFF  09,FE2
008E:  MOVFF  0A,FD9
0092:  MOVFF  0B,FDA
0096:  MOVFF  12,FF3
009A:  MOVFF  13,FF4
009E:  MOVFF  14,FFA
00A2:  MOVF   04,W
00A4:  MOVFF  06,FE0
00A8:  MOVFF  05,FD8
00AC:  RETFIE 0
.................... #include <18F4550.h> 
.................... //////// Standard Header file for the PIC18F4550 device //////////////// 
.................... #device PIC18F4550 
00AE:  MOVF   xA5,W
00B0:  CLRF   01
00B2:  SUBWF  xA4,W
00B4:  BC    00BC
00B6:  MOVFF  A4,00
00BA:  BRA    00D4
00BC:  CLRF   00
00BE:  MOVLW  08
00C0:  MOVWF  xA6
00C2:  RLCF   xA4,F
00C4:  RLCF   00,F
00C6:  MOVF   xA5,W
00C8:  SUBWF  00,W
00CA:  BTFSC  FD8.0
00CC:  MOVWF  00
00CE:  RLCF   01,F
00D0:  DECFSZ xA6,F
00D2:  BRA    00C2
00D4:  RETURN 0
00D6:  MOVLW  20
00D8:  BTFSS  x9F.4
00DA:  MOVLW  30
00DC:  MOVWF  xA0
00DE:  MOVFF  9E,00
00E2:  BTFSS  x9E.7
00E4:  BRA    00F6
00E6:  COMF   00,F
00E8:  INCF   00,F
00EA:  MOVFF  00,9E
00EE:  MOVLW  2D
00F0:  MOVWF  xA0
00F2:  BSF    x9F.7
00F4:  BSF    x9F.0
00F6:  MOVF   01,W
00F8:  MOVFF  9E,A4
00FC:  MOVLW  64
00FE:  MOVWF  xA5
0100:  RCALL  00AE
0102:  MOVFF  00,9E
0106:  MOVLW  30
0108:  ADDWF  01,W
010A:  MOVWF  xA1
010C:  MOVFF  9E,A4
0110:  MOVLW  0A
0112:  MOVWF  xA5
0114:  RCALL  00AE
0116:  MOVLW  30
0118:  ADDWF  00,W
011A:  MOVWF  xA3
011C:  MOVLW  30
011E:  ADDWF  01,W
0120:  MOVWF  xA2
0122:  MOVFF  A0,00
0126:  MOVLW  30
0128:  SUBWF  xA1,W
012A:  BZ    0134
012C:  BSF    x9F.1
012E:  BTFSC  x9F.7
0130:  BSF    x9F.2
0132:  BRA    0158
0134:  MOVFF  A0,A1
0138:  MOVLW  20
013A:  MOVWF  xA0
013C:  MOVLW  30
013E:  SUBWF  xA2,W
0140:  BZ    014A
0142:  BSF    x9F.0
0144:  BTFSC  x9F.7
0146:  BSF    x9F.1
0148:  BRA    0158
014A:  BTFSS  FD8.2
014C:  BSF    x9F.0
014E:  BNZ   0158
0150:  MOVFF  A1,A2
0154:  MOVLW  20
0156:  MOVWF  xA1
0158:  BTFSC  x9F.2
015A:  BRA    0166
015C:  BTFSC  x9F.1
015E:  BRA    016E
0160:  BTFSC  x9F.0
0162:  BRA    0176
0164:  BRA    017E
0166:  MOVF   xA0,W
0168:  BTFSS  F9E.4
016A:  BRA    0168
016C:  MOVWF  FAD
016E:  MOVF   xA1,W
0170:  BTFSS  F9E.4
0172:  BRA    0170
0174:  MOVWF  FAD
0176:  MOVF   xA2,W
0178:  BTFSS  F9E.4
017A:  BRA    0178
017C:  MOVWF  FAD
017E:  MOVF   xA3,W
0180:  BTFSS  F9E.4
0182:  BRA    0180
0184:  MOVWF  FAD
0186:  RETURN 0
0188:  MOVFF  FEA,A6
018C:  MOVFF  FE9,A5
0190:  SWAPF  x9F,W
0192:  IORLW  F0
0194:  MOVWF  xA1
0196:  ADDWF  xA1,F
0198:  ADDLW  E2
019A:  MOVWF  xA2
019C:  ADDLW  32
019E:  MOVWF  xA4
01A0:  MOVF   x9F,W
01A2:  ANDLW  0F
01A4:  ADDWF  xA2,F
01A6:  ADDWF  xA2,F
01A8:  ADDWF  xA4,F
01AA:  ADDLW  E9
01AC:  MOVWF  xA3
01AE:  ADDWF  xA3,F
01B0:  ADDWF  xA3,F
01B2:  SWAPF  x9E,W
01B4:  ANDLW  0F
01B6:  ADDWF  xA3,F
01B8:  ADDWF  xA4,F
01BA:  RLCF   xA3,F
01BC:  RLCF   xA4,F
01BE:  COMF   xA4,F
01C0:  RLCF   xA4,F
01C2:  MOVF   x9E,W
01C4:  ANDLW  0F
01C6:  ADDWF  xA4,F
01C8:  RLCF   xA1,F
01CA:  MOVLW  07
01CC:  MOVWF  xA0
01CE:  MOVLW  0A
01D0:  DECF   xA3,F
01D2:  ADDWF  xA4,F
01D4:  BNC   01D0
01D6:  DECF   xA2,F
01D8:  ADDWF  xA3,F
01DA:  BNC   01D6
01DC:  DECF   xA1,F
01DE:  ADDWF  xA2,F
01E0:  BNC   01DC
01E2:  DECF   xA0,F
01E4:  ADDWF  xA1,F
01E6:  BNC   01E2
01E8:  CLRF   FEA
01EA:  MOVLW  A0
01EC:  MOVWF  FE9
01EE:  MOVLW  07
01F0:  ANDWF  xA5,W
01F2:  BCF    xA5.6
01F4:  ADDWF  FE9,F
01F6:  MOVLW  A4
01F8:  SUBWF  FE9,W
01FA:  BTFSC  FD8.2
01FC:  BSF    xA5.6
01FE:  MOVF   FEF,W
0200:  MOVWF  00
0202:  BNZ   0214
0204:  BTFSC  xA5.6
0206:  BRA    0214
0208:  BTFSC  xA5.4
020A:  BRA    0224
020C:  BTFSC  xA5.3
020E:  BRA    0214
0210:  MOVLW  20
0212:  BRA    021A
0214:  BSF    xA5.3
0216:  BCF    xA5.4
0218:  MOVLW  30
021A:  ADDWF  00,F
021C:  MOVF   00,W
021E:  BTFSS  F9E.4
0220:  BRA    021E
0222:  MOVWF  FAD
0224:  MOVF   FEE,W
0226:  BTFSS  xA5.6
0228:  BRA    01F6
022A:  RETURN 0
*
0346:  MOVF   x80,W
0348:  MULWF  x82
034A:  MOVFF  FF3,01
034E:  MOVFF  FF4,00
0352:  MULWF  x83
0354:  MOVF   FF3,W
0356:  ADDWF  00,F
0358:  MOVF   x81,W
035A:  MULWF  x82
035C:  MOVF   FF3,W
035E:  ADDWFC 00,W
0360:  MOVWF  02
0362:  GOTO   048A (RETURN)
0366:  CLRF   x8C
0368:  CLRF   x8D
036A:  MOVLW  01
036C:  MOVWF  x8E
036E:  CLRF   FDA
0370:  CLRF   FD9
0372:  CLRF   x91
0374:  MOVLW  84
0376:  MOVWF  x90
0378:  CLRF   FEA
037A:  MOVLW  88
037C:  MOVWF  FE9
037E:  MOVFF  91,FE2
0382:  MOVFF  90,FE1
0386:  MOVFF  8E,8F
038A:  BCF    FD8.0
038C:  MOVF   FE5,W
038E:  MULWF  FEE
0390:  MOVF   FF3,W
0392:  ADDWFC x8C,F
0394:  MOVF   FF4,W
0396:  ADDWFC x8D,F
0398:  DECFSZ x8F,F
039A:  BRA    038A
039C:  MOVFF  8C,FDE
03A0:  MOVFF  8D,8C
03A4:  CLRF   x8D
03A6:  BTFSC  FD8.0
03A8:  INCF   x8D,F
03AA:  INCF   x90,F
03AC:  BTFSC  FD8.2
03AE:  INCF   x91,F
03B0:  INCF   x8E,F
03B2:  MOVF   x8E,W
03B4:  SUBLW  05
03B6:  BNZ   0378
03B8:  GOTO   04B8 (RETURN)
*
057A:  TBLRD*+
057C:  MOVF   FF5,F
057E:  BZ    059A
0580:  MOVFF  FF6,98
0584:  MOVFF  FF7,99
0588:  MOVF   FF5,W
058A:  BTFSS  F9E.4
058C:  BRA    058A
058E:  MOVWF  FAD
0590:  MOVFF  98,FF6
0594:  MOVFF  99,FF7
0598:  BRA    057A
059A:  RETURN 0
059C:  DATA 2D,32
059E:  DATA 3A,20
05A0:  DATA 39,3B
05A2:  DATA 00,00
05A4:  DATA 2D,32
05A6:  DATA 3A,20
05A8:  DATA 38,3B
05AA:  DATA 00,00
05AC:  DATA 2D,32
05AE:  DATA 3A,20
05B0:  DATA 37,3B
05B2:  DATA 00,00
05B4:  DATA 2D,32
05B6:  DATA 3A,20
05B8:  DATA 36,3B
05BA:  DATA 00,00
05BC:  DATA 2D,32
05BE:  DATA 3A,20
05C0:  DATA 35,3B
05C2:  DATA 00,00
05C4:  DATA 2D,32
05C6:  DATA 3A,20
05C8:  DATA 34,3B
05CA:  DATA 00,00
05CC:  DATA 2D,32
05CE:  DATA 3A,20
05D0:  DATA 33,3B
05D2:  DATA 00,00
05D4:  DATA 2D,32
05D6:  DATA 3A,20
05D8:  DATA 32,3B
05DA:  DATA 00,00
05DC:  DATA 2D,32
05DE:  DATA 3A,20
05E0:  DATA 31,3B
05E2:  DATA 00,00
05E4:  DATA 2D,32
05E6:  DATA 3A,20
05E8:  DATA 30,3B
05EA:  DATA 00,00
*
0932:  MOVFF  FF2,0D
0936:  BCF    FF2.7
0938:  ADDWF  FE8,W
093A:  CLRF   FF7
093C:  RLCF   FF7,F
093E:  ADDLW  57
0940:  MOVWF  FF6
0942:  MOVLW  09
0944:  ADDWFC FF7,F
0946:  TBLRD*-
0948:  MOVF   FF5,W
094A:  MOVWF  FFA
094C:  TBLRD*
094E:  MOVF   FF5,W
0950:  BTFSC  0D.7
0952:  BSF    FF2.7
0954:  MOVWF  FF9
0956:  DATA FA,07
0958:  DATA FC,07
095A:  DATA 10,08
095C:  DATA 18,08
095E:  DATA 22,08
0960:  DATA 3E,08
*
096A:  MOVFF  FF2,0D
096E:  BCF    FF2.7
0970:  ADDWF  FE8,W
0972:  CLRF   FF7
0974:  RLCF   FF7,F
0976:  ADDLW  8F
0978:  MOVWF  FF6
097A:  MOVLW  09
097C:  ADDWFC FF7,F
097E:  TBLRD*-
0980:  MOVF   FF5,W
0982:  MOVWF  FFA
0984:  TBLRD*
0986:  MOVF   FF5,W
0988:  BTFSC  0D.7
098A:  BSF    FF2.7
098C:  MOVWF  FF9
098E:  DATA 1A,40
0990:  DATA 24,40
0992:  DATA 30,40
0994:  DATA 3C,40
0996:  DATA 48,40
0998:  DATA 96,40
099A:  DATA 96,40
099C:  DATA 96,40
099E:  DATA 96,40
09A0:  DATA 96,40
09A2:  DATA 96,40
09A4:  DATA 96,40
09A6:  DATA 96,40
09A8:  DATA 96,40
09AA:  DATA 96,40
09AC:  DATA 96,40
09AE:  DATA 54,40
09B0:  DATA 62,40
09B2:  DATA 6E,40
09B4:  DATA 7C,40
09B6:  DATA 8A,40
09B8:  MOVFF  FF2,0D
09BC:  BCF    FF2.7
09BE:  ADDWF  FE8,W
09C0:  CLRF   FF7
09C2:  RLCF   FF7,F
09C4:  ADDLW  DD
09C6:  MOVWF  FF6
09C8:  MOVLW  09
09CA:  ADDWFC FF7,F
09CC:  TBLRD*-
09CE:  MOVF   FF5,W
09D0:  MOVWF  FFA
09D2:  TBLRD*
09D4:  MOVF   FF5,W
09D6:  BTFSC  0D.7
09D8:  BSF    FF2.7
09DA:  MOVWF  FF9
09DC:  DATA A6,40
09DE:  DATA AA,40
09E0:  DATA C4,40
09E2:  DATA E6,40
....................  
.................... #list 
....................  
.................... #device adc=10 
.................... /*#fuses HS, NOPROTECT, NOWDT, NOLVP //PUT 
.................... #use delay(crystal = 20000000, clock=20000000)*/ 
....................  
.................... #FUSES NOWDT                    //No Watch Dog Timer 
.................... #FUSES WDT128                   //Watch Dog Timer uses 1:128 Postscale 
.................... #FUSES NOBROWNOUT               //No brownout reset 
.................... #FUSES NOLVP                    //No low voltage prgming, B3(PIC16) or B5(PIC18) used for I/O 
.................... #FUSES NOXINST                  //Extended set> extension and Indexed Addressing mode disabled (Legacy mode) 
.................... #fuses HSPLL,NOWDT,NOPROTECT,NOLVP,USBDIV,PLL5,CPUDIV1 
.................... #use delay(clock=20M,crystal=20M) 
....................  
.................... #use rs232(baud = 9600, xmit = PIN_C6, rcv = PIN_C7) 
....................  
.................... #include "LCD.c" 
.................... /////////////////////////////////////////////////////////////////////////////// 
.................... ////                             LCD.C                                     //// 
.................... ////                 Driver for common LCD modules                         //// 
.................... ////                                                                       //// 
.................... ////  lcd_init()   Must be called before any other function.               //// 
.................... ////                                                                       //// 
.................... ////  lcd_putc(c)  Will display c on the next position of the LCD.         //// 
.................... ////                 \a  Set cursor position to upper left                 //// 
.................... ////                 \f  Clear display, set cursor to upper left           //// 
.................... ////                 \n  Go to start of second line                        //// 
.................... ////                 \b  Move back one position                            //// 
.................... ////              If LCD_EXTENDED_NEWLINE is defined, the \n character     //// 
.................... ////              will erase all remanining characters on the current      //// 
.................... ////              line, and move the cursor to the beginning of the next   //// 
.................... ////              line.                                                    //// 
.................... ////              If LCD_EXTENDED_NEWLINE is defined, the \r character     //// 
.................... ////              will move the cursor to the start of the current         //// 
.................... ////              line.                                                    //// 
.................... ////                                                                       //// 
.................... ////  lcd_gotoxy(x,y) Set write position on LCD (upper left is 1,1)        //// 
.................... ////                                                                       //// 
.................... ////  lcd_getc(x,y)   Returns character at position x,y on LCD             //// 
.................... ////                                                                       //// 
.................... ////  lcd_cursor_on(int1 on)   Turn the cursor on (on=TRUE) or off         //// 
.................... ////              (on=FALSE).                                              //// 
.................... ////                                                                       //// 
.................... ////  lcd_set_cgram_char(w, *p)   Write a custom character to the CGRAM.   //// 
.................... ////                                                                       //// 
.................... ////                                                                       //// 
.................... ////  CONFIGURATION                                                        //// 
.................... ////  The LCD can be configured in one of two ways: a.) port access or     //// 
.................... ////  b.) pin access.  Port access requires the entire 7 bit interface     //// 
.................... ////  connected to one GPIO port, and the data bits (D4:D7 of the LCD)     //// 
.................... ////  connected to sequential pins on the GPIO.  Pin access                //// 
.................... ////  has no requirements, all 7 bits of the control interface can         //// 
.................... ////  can be connected to any GPIO using several ports.                    //// 
.................... ////                                                                       //// 
.................... ////  To use port access, #define LCD_DATA_PORT to the SFR location of     //// 
.................... ////  of the GPIO port that holds the interface, -AND- edit LCD_PIN_MAP    //// 
.................... ////  of this file to configure the pin order.  If you are using a         //// 
.................... ////  baseline PIC (PCB), then LCD_OUTPUT_MAP and LCD_INPUT_MAP also must  //// 
.................... ////  be defined.                                                          //// 
.................... ////                                                                       //// 
.................... ////  Example of port access:                                              //// 
.................... ////     #define LCD_DATA_PORT getenv("SFR:PORTD")                         //// 
.................... ////                                                                       //// 
.................... ////  To use pin access, the following pins must be defined:               //// 
.................... ////     LCD_ENABLE_PIN                                                    //// 
.................... ////     LCD_RS_PIN                                                        //// 
.................... ////     LCD_RW_PIN                                                        //// 
.................... ////     LCD_DATA4                                                         //// 
.................... ////     LCD_DATA5                                                         //// 
.................... ////     LCD_DATA6                                                         //// 
.................... ////     LCD_DATA7                                                         //// 
.................... ////                                                                       //// 
.................... ////  Example of pin access:                                               //// 
.................... ////     #define LCD_ENABLE_PIN  PIN_E0                                    //// 
.................... ////     #define LCD_RS_PIN      PIN_E1                                    //// 
.................... ////     #define LCD_RW_PIN      PIN_E2                                    //// 
.................... ////     #define LCD_DATA4       PIN_D4                                    //// 
.................... ////     #define LCD_DATA5       PIN_D5                                    //// 
.................... ////     #define LCD_DATA6       PIN_D6                                    //// 
.................... ////     #define LCD_DATA7       PIN_D7                                    //// 
.................... ////                                                                       //// 
.................... /////////////////////////////////////////////////////////////////////////////// 
.................... ////        (C) Copyright 1996,2010 Custom Computer Services           //// 
.................... //// This source code may only be used by licensed users of the CCS C  //// 
.................... //// compiler.  This source code may only be distributed to other      //// 
.................... //// licensed users of the CCS C compiler.  No other use, reproduction //// 
.................... //// or distribution is permitted without written permission.          //// 
.................... //// Derivative programs created using this software in object code    //// 
.................... //// form are not restricted in any way.                               //// 
.................... /////////////////////////////////////////////////////////////////////////// 
....................  
.................... #ifndef __LCD_C__ 
.................... #define __LCD_C__ 
....................  
.................... // define the pinout. 
.................... // only required if port access is being used. 
.................... typedef struct   
.................... {                            // This structure is overlayed 
....................    int1 enable;           // on to an I/O port to gain 
....................    int1 rs;               // access to the LCD pins. 
....................    int1 rw;               // The bits are allocated from 
....................    int1 unused;           // low order up.  ENABLE will 
....................    unsigned int     data : 4;         // be LSB pin of that port. 
....................   #if defined(__PCD__)       // The port used will be LCD_DATA_PORT. 
....................    unsigned int    reserved: 8; 
....................   #endif 
.................... } LCD_PIN_MAP; 
....................  
.................... // this is to improve compatability with previous LCD drivers that accepted 
.................... // a define labeled 'use_portb_lcd' that configured the LCD onto port B. 
.................... #if ((defined(use_portb_lcd)) && (use_portb_lcd==TRUE)) 
....................  #define LCD_DATA_PORT getenv("SFR:PORTB") 
.................... #endif 
....................  
.................... #if defined(__PCB__) 
....................    // these definitions only need to be modified for baseline PICs. 
....................    // all other PICs use LCD_PIN_MAP or individual LCD_xxx pin definitions. 
.................... /*                                    EN, RS,   RW,   UNUSED,  DATA  */ 
....................  const LCD_PIN_MAP LCD_OUTPUT_MAP =  {0,  0,    0,    0,       0}; 
....................  const LCD_PIN_MAP LCD_INPUT_MAP =   {0,  0,    0,    0,       0xF}; 
.................... #endif 
....................  
.................... ////////////////////// END CONFIGURATION /////////////////////////////////// 
....................  
.................... #ifndef LCD_ENABLE_PIN 
....................    #define lcd_output_enable(x) lcdlat.enable=x 
....................    #define lcd_enable_tris()   lcdtris.enable=0 
.................... #else 
....................    #define lcd_output_enable(x) output_bit(LCD_ENABLE_PIN, x) 
....................    #define lcd_enable_tris()  output_drive(LCD_ENABLE_PIN) 
.................... #endif 
....................  
.................... #ifndef LCD_RS_PIN 
....................    #define lcd_output_rs(x) lcdlat.rs=x 
....................    #define lcd_rs_tris()   lcdtris.rs=0 
.................... #else 
....................    #define lcd_output_rs(x) output_bit(LCD_RS_PIN, x) 
....................    #define lcd_rs_tris()  output_drive(LCD_RS_PIN) 
.................... #endif 
....................  
.................... #ifndef LCD_RW_PIN 
....................    #define lcd_output_rw(x) lcdlat.rw=x 
....................    #define lcd_rw_tris()   lcdtris.rw=0 
.................... #else 
....................    #define lcd_output_rw(x) output_bit(LCD_RW_PIN, x) 
....................    #define lcd_rw_tris()  output_drive(LCD_RW_PIN) 
.................... #endif 
....................  
.................... // original version of this library incorrectly labeled LCD_DATA0 as LCD_DATA4, 
.................... // LCD_DATA1 as LCD_DATA5, and so on.  this block of code makes the driver 
.................... // compatible with any code written for the original library 
.................... #if (defined(LCD_DATA0) && defined(LCD_DATA1) && defined(LCD_DATA2) && defined(LCD_DATA3) && !defined(LCD_DATA4) && !defined(LCD_DATA5) && !defined(LCD_DATA6) && !defined(LCD_DATA7)) 
....................    #define  LCD_DATA4    LCD_DATA0 
....................    #define  LCD_DATA5    LCD_DATA1 
....................    #define  LCD_DATA6    LCD_DATA2 
....................    #define  LCD_DATA7    LCD_DATA3 
.................... #endif 
....................  
.................... #ifndef LCD_DATA4 
.................... #ifndef LCD_DATA_PORT 
....................    #if defined(__PCB__) 
....................       #define LCD_DATA_PORT      0x06     //portb 
....................       #define set_tris_lcd(x)   set_tris_b(x) 
....................    #else 
....................      #if defined(PIN_D0) 
....................       #define LCD_DATA_PORT      getenv("SFR:PORTD")     //portd 
....................      #else 
....................       #define LCD_DATA_PORT      getenv("SFR:PORTB")     //portb 
....................      #endif 
....................    #endif    
.................... #endif 
....................  
.................... #if defined(__PCB__) 
....................    LCD_PIN_MAP lcd, lcdlat; 
....................    #byte lcd = LCD_DATA_PORT 
....................    #byte lcdlat = LCD_DATA_PORT 
.................... #elif defined(__PCM__) 
....................    LCD_PIN_MAP lcd, lcdlat, lcdtris; 
....................    #byte lcd = LCD_DATA_PORT 
....................    #byte lcdlat = LCD_DATA_PORT 
....................    #byte lcdtris = LCD_DATA_PORT+0x80 
.................... #elif defined(__PCH__) 
....................    LCD_PIN_MAP lcd, lcdlat, lcdtris; 
....................    #byte lcd = LCD_DATA_PORT 
....................    #byte lcdlat = LCD_DATA_PORT+9 
....................    #byte lcdtris = LCD_DATA_PORT+0x12 
.................... #elif defined(__PCD__) 
....................    LCD_PIN_MAP lcd, lcdlat, lcdtris; 
....................    #word lcd = LCD_DATA_PORT 
....................    #word lcdlat = LCD_DATA_PORT+2 
....................    #word lcdtris = LCD_DATA_PORT-0x02 
.................... #endif 
.................... #endif   //LCD_DATA4 not defined 
....................  
.................... #ifndef LCD_TYPE 
....................    #define LCD_TYPE 2           // 0=5x7, 1=5x10, 2=2 lines 
.................... #endif 
....................  
.................... #ifndef LCD_LINE_TWO 
....................    #define LCD_LINE_TWO 0x40    // LCD RAM address for the second line 
.................... #endif 
....................  
.................... #ifndef LCD_LINE_LENGTH 
....................    #define LCD_LINE_LENGTH 20 
.................... #endif 
....................  
.................... unsigned int8 const LCD_INIT_STRING[4] = {0x20 | (LCD_TYPE << 2), 0xc, 1, 6}; 
....................                              // These bytes need to be sent to the LCD 
....................                              // to start it up. 
....................  
.................... unsigned int8 lcd_read_nibble(void); 
....................  
.................... unsigned int8 lcd_read_byte(void) 
.................... { 
....................    unsigned int8 low,high; 
....................  
....................  #if defined(__PCB__) 
....................    set_tris_lcd(LCD_INPUT_MAP); 
....................  #else 
....................   #if (defined(LCD_DATA4) && defined(LCD_DATA5) && defined(LCD_DATA6) && defined(LCD_DATA7)) 
....................    output_float(LCD_DATA4); 
....................    output_float(LCD_DATA5); 
....................    output_float(LCD_DATA6); 
....................    output_float(LCD_DATA7); 
....................   #else 
....................    lcdtris.data = 0xF; 
....................   #endif 
....................  #endif 
....................          
....................    lcd_output_rw(1); 
....................    delay_cycles(1); 
....................    lcd_output_enable(1); 
....................    delay_cycles(1); 
....................    high = lcd_read_nibble(); 
....................        
....................    lcd_output_enable(0); 
....................    delay_cycles(1); 
....................    lcd_output_enable(1); 
....................    delay_us(1); 
....................    low = lcd_read_nibble(); 
....................        
....................    lcd_output_enable(0); 
....................  
....................  #if defined(__PCB__) 
....................    set_tris_lcd(LCD_OUTPUT_MAP); 
....................  #else 
....................   #if (defined(LCD_DATA4) && defined(LCD_DATA5) && defined(LCD_DATA6) && defined(LCD_DATA7)) 
....................    output_drive(LCD_DATA4); 
....................    output_drive(LCD_DATA5); 
....................    output_drive(LCD_DATA6); 
....................    output_drive(LCD_DATA7); 
....................   #else 
....................    lcdtris.data = 0x0; 
....................   #endif 
....................  #endif 
....................  
....................    return( (high<<4) | low); 
.................... } 
....................  
.................... unsigned int8 lcd_read_nibble(void) 
.................... { 
....................   #if (defined(LCD_DATA4) && defined(LCD_DATA5) && defined(LCD_DATA6) && defined(LCD_DATA7)) 
....................    unsigned int8 n = 0x00; 
....................  
....................    /* Read the data port */ 
....................    n |= input(LCD_DATA4); 
....................    n |= input(LCD_DATA5) << 1; 
....................    n |= input(LCD_DATA6) << 2; 
....................    n |= input(LCD_DATA7) << 3; 
....................     
....................    return(n); 
....................   #else 
....................    return(lcd.data); 
....................   #endif 
.................... } 
....................  
.................... void lcd_send_nibble(unsigned int8 n) 
.................... { 
....................   #if (defined(LCD_DATA4) && defined(LCD_DATA5) && defined(LCD_DATA6) && defined(LCD_DATA7)) 
....................    /* Write to the data port */ 
....................    output_bit(LCD_DATA4, bit_test(n, 0)); 
....................    output_bit(LCD_DATA5, bit_test(n, 1)); 
....................    output_bit(LCD_DATA6, bit_test(n, 2)); 
....................    output_bit(LCD_DATA7, bit_test(n, 3)); 
....................   #else       
....................    lcdlat.data = n; 
....................   #endif 
....................        
....................    delay_cycles(1); 
....................    lcd_output_enable(1); 
....................    delay_us(2); 
....................    lcd_output_enable(0); 
.................... } 
....................  
.................... void lcd_send_byte(unsigned int8 address, unsigned int8 n) 
.................... { 
....................   #if defined(__PCB__) 
....................    set_tris_lcd(LCD_OUTPUT_MAP); 
....................   #else 
....................    lcd_enable_tris(); 
....................    lcd_rs_tris(); 
....................    lcd_rw_tris(); 
....................   #endif 
....................  
....................    lcd_output_rs(0); 
....................    while ( bit_test(lcd_read_byte(),7) ) ; 
....................    lcd_output_rs(address); 
....................    delay_cycles(1); 
....................    lcd_output_rw(0); 
....................    delay_cycles(1); 
....................    lcd_output_enable(0); 
....................    lcd_send_nibble(n >> 4); 
....................    lcd_send_nibble(n & 0xf); 
.................... } 
....................  
.................... #if defined(LCD_EXTENDED_NEWLINE) 
.................... unsigned int8 g_LcdX, g_LcdY; 
.................... #endif 
....................  
.................... void lcd_init(void)  
.................... { 
....................    unsigned int8 i; 
....................  
....................  #if defined(__PCB__) 
....................    set_tris_lcd(LCD_OUTPUT_MAP); 
....................  #else 
....................   #if (defined(LCD_DATA4) && defined(LCD_DATA5) && defined(LCD_DATA6) && defined(LCD_DATA7)) 
....................    output_drive(LCD_DATA4); 
....................    output_drive(LCD_DATA5); 
....................    output_drive(LCD_DATA6); 
....................    output_drive(LCD_DATA7); 
....................   #else 
....................    lcdtris.data = 0x0; 
....................   #endif 
....................    lcd_enable_tris(); 
....................    lcd_rs_tris(); 
....................    lcd_rw_tris(); 
....................  #endif 
....................  
....................    lcd_output_rs(0); 
....................    lcd_output_rw(0); 
....................    lcd_output_enable(0); 
....................      
....................    delay_ms(15); 
....................    for(i=1;i<=3;++i) 
....................    { 
....................        lcd_send_nibble(3); 
....................        delay_ms(5); 
....................    } 
....................     
....................    lcd_send_nibble(2); 
....................    delay_ms(5); 
....................    for(i=0;i<=3;++i) 
....................       lcd_send_byte(0,LCD_INIT_STRING[i]); 
....................  
....................   #if defined(LCD_EXTENDED_NEWLINE) 
....................    g_LcdX = 0; 
....................    g_LcdY = 0; 
....................   #endif 
.................... } 
....................  
.................... void lcd_gotoxy(unsigned int8 x, unsigned int8 y) 
.................... { 
....................    unsigned int8 address; 
....................     
....................    if(y!=1) 
....................       address=LCD_LINE_TWO; 
....................    else 
....................       address=0; 
....................       
....................    address+=x-1; 
....................    lcd_send_byte(0,0x80|address); 
....................  
....................   #if defined(LCD_EXTENDED_NEWLINE) 
....................    g_LcdX = x - 1; 
....................    g_LcdY = y - 1; 
....................   #endif 
.................... } 
....................  
.................... void lcd_putc(char c) 
.................... { 
....................    switch (c) 
....................    { 
....................       case '\a'   :  lcd_gotoxy(1,1);     break; 
....................  
....................       case '\f'   :  lcd_send_byte(0,1); 
....................                      delay_ms(2); 
....................                     #if defined(LCD_EXTENDED_NEWLINE) 
....................                      g_LcdX = 0; 
....................                      g_LcdY = 0; 
....................                     #endif 
....................                      break; 
....................  
....................      #if defined(LCD_EXTENDED_NEWLINE) 
....................       case '\r'   :  lcd_gotoxy(1, g_LcdY+1);   break; 
....................       case '\n'   : 
....................          while (g_LcdX++ < LCD_LINE_LENGTH) 
....................          { 
....................             lcd_send_byte(1, ' '); 
....................          } 
....................          lcd_gotoxy(1, g_LcdY+2); 
....................          break; 
....................      #else 
....................       case '\n'   : lcd_gotoxy(1,2);        break; 
....................      #endif 
....................       
....................       case '\b'   : lcd_send_byte(0,0x10);  break; 
....................       
....................      #if defined(LCD_EXTENDED_NEWLINE) 
....................       default     :  
....................          if (g_LcdX < LCD_LINE_LENGTH) 
....................          { 
....................             lcd_send_byte(1, c); 
....................             g_LcdX++; 
....................          } 
....................          break; 
....................      #else 
....................       default     : lcd_send_byte(1,c);     break; 
....................      #endif 
....................    } 
.................... } 
....................   
.................... char lcd_getc(unsigned int8 x, unsigned int8 y) 
.................... { 
....................    char value; 
....................  
....................    lcd_gotoxy(x,y); 
....................    while ( bit_test(lcd_read_byte(),7) ); // wait until busy flag is low 
....................    lcd_output_rs(1); 
....................    value = lcd_read_byte(); 
....................    lcd_output_rs(0); 
....................     
....................    return(value); 
.................... } 
....................  
.................... // write a custom character to the ram 
.................... // which is 0-7 and specifies which character array we are modifying. 
.................... // ptr points to an array of 8 bytes, where each byte is the next row of 
.................... //    pixels.  only bits 0-4 are used.  the last row is the cursor row, and 
.................... //    usually you will want to leave this byte 0x00. 
.................... void lcd_set_cgram_char(unsigned int8 which, unsigned int8 *ptr) 
.................... { 
....................    unsigned int i; 
....................  
....................    which <<= 3; 
....................    which &= 0x38; 
....................  
....................    lcd_send_byte(0, 0x40 | which);  //set cgram address 
....................  
....................    for(i=0; i<8; i++) 
....................    { 
....................       lcd_send_byte(1, *ptr++); 
....................    } 
....................    
....................    #if defined(LCD_EXTENDED_NEWLINE) 
....................     lcd_gotoxy(g_LcdX+1, g_LcdY+1);  //set ddram address 
....................    #endif 
.................... } 
....................  
.................... void lcd_cursor_on(int1 on) 
.................... { 
....................    if (on) 
....................    { 
....................       lcd_send_byte(0,0x0F);           //turn LCD cursor ON 
....................    } 
....................    else 
....................    { 
....................       lcd_send_byte(0,0x0C);           //turn LCD cursor OFF 
....................    } 
.................... } 
....................  
.................... #endif 
....................  
....................  
.................... //Punteros 
....................  
.................... #byte PORTA = 0x80 
.................... #byte PORTB = 0x81 
.................... #byte PORTC = 0x82 
.................... #byte PORTD = 0x83 
.................... #byte PORTE = 0x84 
.................... #byte TRISA = 0x92 
.................... #byte TRISB = 0x93 
.................... #byte TRISC = 0x94 
.................... #byte TRISD = 0x95 
.................... #byte TRISE = 0x96 
....................  
....................  
.................... #byte TOSU = 0xFFF 
.................... #byte TOSH = 0xFFE 
.................... #byte TOSL = 0xFFD 
.................... #byte STKPTR = 0xFFC 
.................... #byte PCLATU = 0xFFB 
.................... #byte PCLATH = 0xFFA 
.................... #byte PCL = 0xFF9 
.................... #byte TMR0H = 0xFD7 
.................... #byte TMR0L = 0xFD6 
.................... #byte T0CON = 0xFD5 
.................... #byte T1CON = 0xFCD 
.................... #byte bsr = 0xFE0 
.................... #byte wreg = 0xFE8 
.................... #byte status = 0xFD8 
.................... #byte RCON = 0xFD0 
.................... #byte INTCON = 0xFF2 
....................  
.................... //Agregado (2 líneas): 
.................... #byte PIR1 = 0XF9E 
.................... #bit RCIF = PIR1.5 
....................  
.................... #byte ADCON0 = 0xFC2 
.................... #byte ADCON2 = 0xFC0 
.................... #byte ADRESL = 0xFC3 
.................... #byte ADRESH = 0xFC4 
.................... #bit ANALOGICO = ADCON0.3 
.................... #bit TMR0IE = INTCON.5 
.................... #bit TMR0IF = INTCON.2 
.................... #bit IPEN = RCON.7 
....................  
.................... #byte CCPR1L = 0xFBE 
.................... #byte CCP1CON = 0XFBD 
.................... #bit CCP5 = CCP1CON.5 
.................... #bit CCP4 = CCP1CON.4 
....................  
.................... #byte UCON=0xF6D 
.................... #bit USBEN=UCON.3 
....................  
....................  
....................  
.................... //long num; 
....................  
....................  
.................... //int idenv; 
.................... //long direv; 
.................... //int  estenv; 
.................... //long actual; 
....................  
.................... // Propiedades de programa 
....................  
.................... struct pcb 
.................... { 
....................     long di; 
....................     long df; 
....................     long da; 
....................     int estado; 
....................     int w_reg; 
....................     int status; 
....................     int bsr; 
....................     int id; 
.................... } pList[8]; // Lista de procesos 
.................... int pPila[8]; // Pila de procesos 
.................... char cmd = 0x00; // Comando 
.................... char speed = '-'; 
.................... int nCount = 0; // Numero de procesos 
.................... int pCount; // Total de procesos 
....................  
....................  
.................... //int tabla[10] = {63, 6, 91, 79, 102, 109, 125, 7, 127, 103}; 
....................  
.................... void activar_timer() 
.................... { 
....................     //enable_interrupts(INT_TIMER1); 
....................     //set_timer1(49910); 
....................     setup_timer_1(T1_INTERNAL | T1_DIV_BY_2); //10.9 ms overflow 
*
0962:  MOVLW  95
0964:  MOVWF  FCD
....................     //setup_timer_1(T1_INTERNAL | T1_DIV_BY_8); 
....................     enable_interrupts(INT_TIMER1); 
0966:  BSF    F9D.0
0968:  RETURN 0
.................... } 
....................  
.................... void desactivar_timer() 
.................... { 
....................     disable_interrupts(INT_TIMER1); 
*
0342:  BCF    F9D.0
0344:  RETURN 0
.................... } 
....................  
.................... /* 
.................... void inicio_ad() 
.................... { 
....................     setup_adc(ADC_CLOCK_INTERNAL); 
....................     setup_adc_ports(AN0_TO_AN1_ANALOG); 
.................... } 
....................  */ 
.................... void inicio_pwm() 
.................... { 
....................     setup_ccp1(ccp_pwm); 
*
0A14:  BCF    F94.2
0A16:  BCF    F8B.2
0A18:  MOVLW  0C
0A1A:  MOVWF  FBD
0A1C:  CLRF   FB7
0A1E:  CLRF   FB6
....................     setup_timer_2(t2_div_by_16, 249, 10); //Para un periodo de 1.6ms 
0A20:  MOVLW  48
0A22:  IORLW  06
0A24:  MOVWF  FCA
0A26:  MOVLW  F9
0A28:  MOVWF  FCB
....................     CCPR1L = 0x00; 
0A2A:  CLRF   FBE
....................     CCP5 = 0x00; 
0A2C:  BCF    FBD.5
....................     CCP4 = 0x00; 
0A2E:  BCF    FBD.4
0A30:  GOTO   0AF4 (RETURN)
.................... } 
....................  
....................  
....................  
.................... int processIdToSend = -1; 
.................... #INT_TIMER0 
....................  
.................... void Timer0_ISR() 
.................... { 
....................  
....................     output_toggle(PIN_C1); 
*
022C:  BCF    F94.1
022E:  BTG    F8B.1
....................     //output_toggle(PIN_D5); 
....................  
....................     if (nCount > 0) 
0230:  MOVF   x79,F
0232:  BTFSC  FD8.2
0234:  BRA    033C
....................     { 
....................  
....................         processIdToSend++; 
0236:  INCF   x7B,F
....................         if (processIdToSend > pCount) 
0238:  MOVF   x7B,W
023A:  SUBWF  x7A,W
023C:  BC    0240
....................             processIdToSend = 0; 
023E:  CLRF   x7B
....................         printf("$%i %Lu %i;", pList[0].id, pList[0].da, pList[0].estado); 
0240:  MOVLW  24
0242:  BTFSS  F9E.4
0244:  BRA    0242
0246:  MOVWF  FAD
0248:  MOVFF  21,9E
024C:  MOVLW  18
024E:  MOVWF  x9F
0250:  RCALL  00D6
0252:  MOVLW  20
0254:  BTFSS  F9E.4
0256:  BRA    0254
0258:  MOVWF  FAD
025A:  MOVLW  10
025C:  MOVWF  FE9
025E:  MOVFF  1C,9F
0262:  MOVFF  1B,9E
0266:  RCALL  0188
0268:  MOVLW  20
026A:  BTFSS  F9E.4
026C:  BRA    026A
026E:  MOVWF  FAD
0270:  MOVFF  1D,9E
0274:  MOVLW  18
0276:  MOVWF  x9F
0278:  RCALL  00D6
027A:  MOVLW  3B
027C:  BTFSS  F9E.4
027E:  BRA    027C
0280:  MOVWF  FAD
....................         printf("$%i %Lu %i;", pList[processIdToSend].id, pList[processIdToSend].da, pList[processIdToSend].estado); 
0282:  MOVF   x7B,W
0284:  MULLW  0B
0286:  MOVF   FF3,W
0288:  CLRF   x7D
028A:  MOVWF  x7C
028C:  MOVLW  0A
028E:  ADDWF  x7C,W
0290:  MOVWF  01
0292:  MOVLW  00
0294:  ADDWFC x7D,W
0296:  MOVWF  03
0298:  MOVF   01,W
029A:  ADDLW  17
029C:  MOVWF  FE9
029E:  MOVLW  00
02A0:  ADDWFC 03,W
02A2:  MOVWF  FEA
02A4:  MOVFF  FEF,7C
02A8:  MOVF   x7B,W
02AA:  MULLW  0B
02AC:  MOVF   FF3,W
02AE:  CLRF   x7E
02B0:  MOVWF  x7D
02B2:  MOVLW  04
02B4:  ADDWF  x7D,W
02B6:  MOVWF  01
02B8:  MOVLW  00
02BA:  ADDWFC x7E,W
02BC:  MOVWF  03
02BE:  MOVF   01,W
02C0:  ADDLW  17
02C2:  MOVWF  FE9
02C4:  MOVLW  00
02C6:  ADDWFC 03,W
02C8:  MOVWF  FEA
02CA:  MOVFF  FEC,7E
02CE:  MOVF   FED,F
02D0:  MOVFF  FEF,7D
02D4:  MOVF   x7B,W
02D6:  MULLW  0B
02D8:  MOVF   FF3,W
02DA:  CLRF   x80
02DC:  MOVWF  x7F
02DE:  MOVLW  06
02E0:  ADDWF  x7F,W
02E2:  MOVWF  01
02E4:  MOVLW  00
02E6:  ADDWFC x80,W
02E8:  MOVWF  03
02EA:  MOVF   01,W
02EC:  ADDLW  17
02EE:  MOVWF  FE9
02F0:  MOVLW  00
02F2:  ADDWFC 03,W
02F4:  MOVWF  FEA
02F6:  MOVFF  FEF,7F
02FA:  MOVLW  24
02FC:  BTFSS  F9E.4
02FE:  BRA    02FC
0300:  MOVWF  FAD
0302:  MOVFF  7C,9E
0306:  MOVLW  18
0308:  MOVWF  x9F
030A:  RCALL  00D6
030C:  MOVLW  20
030E:  BTFSS  F9E.4
0310:  BRA    030E
0312:  MOVWF  FAD
0314:  MOVLW  10
0316:  MOVWF  FE9
0318:  MOVFF  7E,9F
031C:  MOVFF  7D,9E
0320:  RCALL  0188
0322:  MOVLW  20
0324:  BTFSS  F9E.4
0326:  BRA    0324
0328:  MOVWF  FAD
032A:  MOVFF  7F,9E
032E:  MOVLW  18
0330:  MOVWF  x9F
0332:  RCALL  00D6
0334:  MOVLW  3B
0336:  BTFSS  F9E.4
0338:  BRA    0336
033A:  MOVWF  FAD
....................     } 
....................     //set_timer0(26472); 
.................... } 
....................  
....................  
033C:  BCF    FF2.2
033E:  GOTO   006C
.................... #INT_TIMER1 
....................  
.................... void inter_quantum() 
.................... { 
....................     //output_toggle(PIN_D0); 
....................  
....................     pList[pPila[0]].w_reg = wreg; 
*
03BC:  MOVF   x6F,W
03BE:  MULLW  0B
03C0:  MOVF   FF3,W
03C2:  CLRF   x7F
03C4:  MOVWF  x7E
03C6:  MOVLW  07
03C8:  ADDWF  x7E,W
03CA:  MOVWF  01
03CC:  MOVLW  00
03CE:  ADDWFC x7F,W
03D0:  MOVWF  03
03D2:  MOVF   01,W
03D4:  ADDLW  17
03D6:  MOVWF  FE9
03D8:  MOVLW  00
03DA:  ADDWFC 03,W
03DC:  MOVWF  FEA
03DE:  MOVFF  FE8,FEF
....................     pList[pPila[0]].status = status; 
03E2:  MOVF   x6F,W
03E4:  MULLW  0B
03E6:  MOVF   FF3,W
03E8:  CLRF   x7F
03EA:  MOVWF  x7E
03EC:  MOVLW  08
03EE:  ADDWF  x7E,W
03F0:  MOVWF  01
03F2:  MOVLW  00
03F4:  ADDWFC x7F,W
03F6:  MOVWF  03
03F8:  MOVF   01,W
03FA:  ADDLW  17
03FC:  MOVWF  FE9
03FE:  MOVLW  00
0400:  ADDWFC 03,W
0402:  MOVWF  FEA
0404:  MOVFF  FD8,FEF
....................     pList[pPila[0]].w_reg = wreg; 
0408:  MOVF   x6F,W
040A:  MULLW  0B
040C:  MOVF   FF3,W
040E:  CLRF   x7F
0410:  MOVWF  x7E
0412:  MOVLW  07
0414:  ADDWF  x7E,W
0416:  MOVWF  01
0418:  MOVLW  00
041A:  ADDWFC x7F,W
041C:  MOVWF  03
041E:  MOVF   01,W
0420:  ADDLW  17
0422:  MOVWF  FE9
0424:  MOVLW  00
0426:  ADDWFC 03,W
0428:  MOVWF  FEA
042A:  MOVFF  FE8,FEF
....................     pList[pPila[0]].bsr = bsr; 
042E:  MOVF   x6F,W
0430:  MULLW  0B
0432:  MOVF   FF3,W
0434:  CLRF   x7F
0436:  MOVWF  x7E
0438:  MOVLW  09
043A:  ADDWF  x7E,W
043C:  MOVWF  01
043E:  MOVLW  00
0440:  ADDWFC x7F,W
0442:  MOVWF  03
0444:  MOVF   01,W
0446:  ADDLW  17
0448:  MOVWF  FE9
044A:  MOVLW  00
044C:  ADDWFC 03,W
044E:  MOVWF  FEA
0450:  MOVFF  FE0,FEF
....................  
....................     desactivar_timer(); 
0454:  RCALL  0342
....................     //output_toggle(PIN_A0); 
....................     //printf("q%i;", np); 
....................     //Función de corrimiento: 
....................     //printf("-t1;"); 
....................     if (nCount > 0) 
0456:  MOVF   x79,F
0458:  BZ    0548
....................     { 
....................         //printf("-q;"); 
....................         //Guardando la dirección actual://TOS (Top of Stack)--->PC 
....................  
....................         pList[pPila[0]].da = TOSL + (TOSH * 256) + (TOSU * 65536); 
045A:  MOVF   x6F,W
045C:  MULLW  0B
045E:  MOVF   FF3,W
0460:  CLRF   x7F
0462:  MOVWF  x7E
0464:  MOVLW  04
0466:  ADDWF  x7E,W
0468:  MOVWF  01
046A:  MOVLW  00
046C:  ADDWFC x7F,W
046E:  MOVWF  03
0470:  MOVF   01,W
0472:  ADDLW  17
0474:  MOVWF  FE9
0476:  MOVLW  00
0478:  ADDWFC 03,W
047A:  MOVWF  FEA
047C:  CLRF   x81
047E:  MOVFF  FFE,80
0482:  MOVLW  01
0484:  MOVWF  x83
0486:  CLRF   x82
0488:  BRA    0346
048A:  MOVFF  02,03
048E:  MOVF   01,W
0490:  ADDWF  FFD,W
0492:  MOVWF  x80
0494:  MOVLW  00
0496:  ADDWFC 02,W
0498:  MOVWF  x81
049A:  MOVFF  FEA,83
049E:  MOVFF  FE9,82
04A2:  CLRF   x87
04A4:  CLRF   x86
04A6:  CLRF   x85
04A8:  MOVFF  FFF,84
04AC:  CLRF   x8B
04AE:  MOVLW  01
04B0:  MOVWF  x8A
04B2:  CLRF   x89
04B4:  CLRF   x88
04B6:  BRA    0366
04B8:  MOVFF  83,FEA
04BC:  MOVFF  82,FE9
04C0:  MOVF   00,W
04C2:  ADDWF  x80,W
04C4:  MOVWF  FEF
04C6:  MOVF   01,W
04C8:  ADDWFC x81,W
04CA:  MOVWF  FEC
....................  
....................         pList[pPila[0]].estado = 2; 
04CC:  MOVF   x6F,W
04CE:  MULLW  0B
04D0:  MOVF   FF3,W
04D2:  CLRF   x7F
04D4:  MOVWF  x7E
04D6:  MOVLW  06
04D8:  ADDWF  x7E,W
04DA:  MOVWF  01
04DC:  MOVLW  00
04DE:  ADDWFC x7F,W
04E0:  MOVWF  03
04E2:  MOVF   01,W
04E4:  ADDLW  17
04E6:  MOVWF  FE9
04E8:  MOVLW  00
04EA:  ADDWFC 03,W
04EC:  MOVWF  FEA
04EE:  MOVLW  02
04F0:  MOVWF  FEF
....................  
....................         /*pPila[nCount] = pPila[0]; 
....................         int ab; 
....................         for(ab = 0; ab < nCount; ab++) 
....................         { 
....................             pPila[ab] = pPila[ab+1]; 
....................         } 
....................          */ 
....................         int temp; 
....................         temp = pPila[0]; 
04F2:  MOVFF  6F,7C
....................         int k; 
....................         for (k = 0; k < (nCount - 1); k++) 
04F6:  CLRF   x7D
04F8:  MOVLW  01
04FA:  SUBWF  x79,W
04FC:  SUBWF  x7D,W
04FE:  BC    0534
....................         { 
....................             pPila[k] = pPila[k + 1]; 
0500:  CLRF   03
0502:  MOVF   x7D,W
0504:  ADDLW  6F
0506:  MOVWF  01
0508:  MOVLW  00
050A:  ADDWFC 03,F
050C:  MOVFF  03,7F
0510:  MOVLW  01
0512:  ADDWF  x7D,W
0514:  CLRF   03
0516:  ADDLW  6F
0518:  MOVWF  FE9
051A:  MOVLW  00
051C:  ADDWFC 03,W
051E:  MOVWF  FEA
0520:  MOVFF  FEF,80
0524:  MOVFF  7F,FEA
0528:  MOVFF  01,FE9
052C:  MOVFF  80,FEF
0530:  INCF   x7D,F
0532:  BRA    04F8
....................         } 
....................         pPila[nCount - 1] = temp; 
0534:  MOVLW  01
0536:  SUBWF  x79,W
0538:  CLRF   03
053A:  ADDLW  6F
053C:  MOVWF  FE9
053E:  MOVLW  00
0540:  ADDWFC 03,W
0542:  MOVWF  FEA
0544:  MOVFF  7C,FEF
....................  
....................  
....................  
....................     } 
....................     //output_toggle(PIN_D0); 
.................... #asm 
....................     clrf TOSL 
0548:  CLRF   FFD
....................     movlw 0x40 
054A:  MOVLW  40
....................             movwf TOSH 
054C:  MOVWF  FFE
....................             clrf TOSU 
054E:  CLRF   FFF
.................... #endasm 
.................... } 
....................  
0550:  BCF    F9E.0
0552:  GOTO   006C
.................... #INT_RDA 
....................  
.................... void Data_ISR() 
.................... { 
....................     cmd = getc(); 
0556:  BTFSS  F9E.5
0558:  BRA    0556
055A:  MOVFF  FAE,77
....................     if (cmd == '+' || cmd == '-') 
055E:  MOVF   x77,W
0560:  SUBLW  2B
0562:  BZ    056A
0564:  MOVF   x77,W
0566:  SUBLW  2D
0568:  BNZ   0570
....................     { 
....................         speed = cmd; 
056A:  MOVFF  77,78
....................         cmd = 0x0; 
056E:  CLRF   x77
....................     } 
....................     output_toggle(PIN_B7); 
0570:  BCF    F93.7
0572:  BTG    F8A.7
.................... } 
....................  
.................... //programa 1 (Luces) 
....................  
....................  
0574:  BCF    F9E.5
0576:  GOTO   006C
.................... #ORG 0x1000, 0x1350 
....................  
.................... void Task1() 
.................... { 
....................  
....................     long vk1, vl1; 
....................     while (1) 
....................     { 
....................         output_low(PIN_C0); 
*
1000:  BCF    F94.0
1002:  BCF    F8B.0
....................         output_low(PIN_D3); 
1004:  BCF    F95.3
1006:  BCF    F8C.3
....................         output_low(PIN_A2); 
1008:  BCF    F92.2
100A:  BCF    F89.2
....................         output_low(PIN_A3); 
100C:  BCF    F92.3
100E:  BCF    F89.3
....................         for (vk1 = 1; vk1 < 600; ++vk1) 
1010:  CLRF   x93
1012:  MOVLW  01
1014:  MOVWF  x92
1016:  MOVF   x93,W
1018:  SUBLW  02
101A:  BNC   1048
101C:  BNZ   1024
101E:  MOVF   x92,W
1020:  SUBLW  57
1022:  BNC   1048
....................         { 
....................             for (vl1 = 1; vl1 < 500; ++vl1) 
1024:  CLRF   x95
1026:  MOVLW  01
1028:  MOVWF  x94
102A:  MOVF   x95,W
102C:  SUBLW  01
102E:  BNC   1040
1030:  BNZ   1038
1032:  MOVF   x94,W
1034:  SUBLW  F3
1036:  BNC   1040
....................             { 
1038:  INCF   x94,F
103A:  BTFSC  FD8.2
103C:  INCF   x95,F
103E:  BRA    102A
....................             } 
1040:  INCF   x92,F
1042:  BTFSC  FD8.2
1044:  INCF   x93,F
1046:  BRA    1016
....................         } 
....................         output_high(PIN_C0); 
1048:  BCF    F94.0
104A:  BSF    F8B.0
....................  
....................         for (vk1 = 1; vk1 < 600; ++vk1) 
104C:  CLRF   x93
104E:  MOVLW  01
1050:  MOVWF  x92
1052:  MOVF   x93,W
1054:  SUBLW  02
1056:  BNC   1084
1058:  BNZ   1060
105A:  MOVF   x92,W
105C:  SUBLW  57
105E:  BNC   1084
....................         { 
....................             for (vl1 = 1; vl1 < 500; ++vl1) 
1060:  CLRF   x95
1062:  MOVLW  01
1064:  MOVWF  x94
1066:  MOVF   x95,W
1068:  SUBLW  01
106A:  BNC   107C
106C:  BNZ   1074
106E:  MOVF   x94,W
1070:  SUBLW  F3
1072:  BNC   107C
....................             { 
1074:  INCF   x94,F
1076:  BTFSC  FD8.2
1078:  INCF   x95,F
107A:  BRA    1066
....................             } 
107C:  INCF   x92,F
107E:  BTFSC  FD8.2
1080:  INCF   x93,F
1082:  BRA    1052
....................         } 
....................         output_high(PIN_D3); 
1084:  BCF    F95.3
1086:  BSF    F8C.3
....................  
....................         for (vk1 = 1; vk1 < 600; ++vk1) 
1088:  CLRF   x93
108A:  MOVLW  01
108C:  MOVWF  x92
108E:  MOVF   x93,W
1090:  SUBLW  02
1092:  BNC   10C0
1094:  BNZ   109C
1096:  MOVF   x92,W
1098:  SUBLW  57
109A:  BNC   10C0
....................         { 
....................             for (vl1 = 1; vl1 < 500; ++vl1) 
109C:  CLRF   x95
109E:  MOVLW  01
10A0:  MOVWF  x94
10A2:  MOVF   x95,W
10A4:  SUBLW  01
10A6:  BNC   10B8
10A8:  BNZ   10B0
10AA:  MOVF   x94,W
10AC:  SUBLW  F3
10AE:  BNC   10B8
....................             { 
10B0:  INCF   x94,F
10B2:  BTFSC  FD8.2
10B4:  INCF   x95,F
10B6:  BRA    10A2
....................             } 
10B8:  INCF   x92,F
10BA:  BTFSC  FD8.2
10BC:  INCF   x93,F
10BE:  BRA    108E
....................         } 
....................         output_high(PIN_A2); 
10C0:  BCF    F92.2
10C2:  BSF    F89.2
....................  
....................         for (vk1 = 1; vk1 < 600; ++vk1) 
10C4:  CLRF   x93
10C6:  MOVLW  01
10C8:  MOVWF  x92
10CA:  MOVF   x93,W
10CC:  SUBLW  02
10CE:  BNC   10FC
10D0:  BNZ   10D8
10D2:  MOVF   x92,W
10D4:  SUBLW  57
10D6:  BNC   10FC
....................         { 
....................             for (vl1 = 1; vl1 < 500; ++vl1) 
10D8:  CLRF   x95
10DA:  MOVLW  01
10DC:  MOVWF  x94
10DE:  MOVF   x95,W
10E0:  SUBLW  01
10E2:  BNC   10F4
10E4:  BNZ   10EC
10E6:  MOVF   x94,W
10E8:  SUBLW  F3
10EA:  BNC   10F4
....................             { 
10EC:  INCF   x94,F
10EE:  BTFSC  FD8.2
10F0:  INCF   x95,F
10F2:  BRA    10DE
....................             } 
10F4:  INCF   x92,F
10F6:  BTFSC  FD8.2
10F8:  INCF   x93,F
10FA:  BRA    10CA
....................         } 
....................         output_high(PIN_A3); 
10FC:  BCF    F92.3
10FE:  BSF    F89.3
....................  
....................         for (vk1 = 1; vk1 < 600; ++vk1) 
1100:  CLRF   x93
1102:  MOVLW  01
1104:  MOVWF  x92
1106:  MOVF   x93,W
1108:  SUBLW  02
110A:  BNC   1138
110C:  BNZ   1114
110E:  MOVF   x92,W
1110:  SUBLW  57
1112:  BNC   1138
....................         { 
....................             for (vl1 = 1; vl1 < 500; ++vl1) 
1114:  CLRF   x95
1116:  MOVLW  01
1118:  MOVWF  x94
111A:  MOVF   x95,W
111C:  SUBLW  01
111E:  BNC   1130
1120:  BNZ   1128
1122:  MOVF   x94,W
1124:  SUBLW  F3
1126:  BNC   1130
....................             { 
1128:  INCF   x94,F
112A:  BTFSC  FD8.2
112C:  INCF   x95,F
112E:  BRA    111A
....................             } 
1130:  INCF   x92,F
1132:  BTFSC  FD8.2
1134:  INCF   x93,F
1136:  BRA    1106
....................         } 
....................         output_low(PIN_A3); 
1138:  BCF    F92.3
113A:  BCF    F89.3
....................  
....................         for (vk1 = 1; vk1 < 600; ++vk1) 
113C:  CLRF   x93
113E:  MOVLW  01
1140:  MOVWF  x92
1142:  MOVF   x93,W
1144:  SUBLW  02
1146:  BNC   1174
1148:  BNZ   1150
114A:  MOVF   x92,W
114C:  SUBLW  57
114E:  BNC   1174
....................         { 
....................             for (vl1 = 1; vl1 < 500; ++vl1) 
1150:  CLRF   x95
1152:  MOVLW  01
1154:  MOVWF  x94
1156:  MOVF   x95,W
1158:  SUBLW  01
115A:  BNC   116C
115C:  BNZ   1164
115E:  MOVF   x94,W
1160:  SUBLW  F3
1162:  BNC   116C
....................             { 
1164:  INCF   x94,F
1166:  BTFSC  FD8.2
1168:  INCF   x95,F
116A:  BRA    1156
....................             } 
116C:  INCF   x92,F
116E:  BTFSC  FD8.2
1170:  INCF   x93,F
1172:  BRA    1142
....................         } 
....................         output_low(PIN_A2); 
1174:  BCF    F92.2
1176:  BCF    F89.2
....................  
....................         for (vk1 = 1; vk1 < 600; ++vk1) 
1178:  CLRF   x93
117A:  MOVLW  01
117C:  MOVWF  x92
117E:  MOVF   x93,W
1180:  SUBLW  02
1182:  BNC   11B0
1184:  BNZ   118C
1186:  MOVF   x92,W
1188:  SUBLW  57
118A:  BNC   11B0
....................         { 
....................             for (vl1 = 1; vl1 < 500; ++vl1) 
118C:  CLRF   x95
118E:  MOVLW  01
1190:  MOVWF  x94
1192:  MOVF   x95,W
1194:  SUBLW  01
1196:  BNC   11A8
1198:  BNZ   11A0
119A:  MOVF   x94,W
119C:  SUBLW  F3
119E:  BNC   11A8
....................             { 
11A0:  INCF   x94,F
11A2:  BTFSC  FD8.2
11A4:  INCF   x95,F
11A6:  BRA    1192
....................             } 
11A8:  INCF   x92,F
11AA:  BTFSC  FD8.2
11AC:  INCF   x93,F
11AE:  BRA    117E
....................         } 
....................         output_low(PIN_D3); 
11B0:  BCF    F95.3
11B2:  BCF    F8C.3
....................  
....................         for (vk1 = 1; vk1 < 600; ++vk1) 
11B4:  CLRF   x93
11B6:  MOVLW  01
11B8:  MOVWF  x92
11BA:  MOVF   x93,W
11BC:  SUBLW  02
11BE:  BNC   11EC
11C0:  BNZ   11C8
11C2:  MOVF   x92,W
11C4:  SUBLW  57
11C6:  BNC   11EC
....................         { 
....................             for (vl1 = 1; vl1 < 500; ++vl1) 
11C8:  CLRF   x95
11CA:  MOVLW  01
11CC:  MOVWF  x94
11CE:  MOVF   x95,W
11D0:  SUBLW  01
11D2:  BNC   11E4
11D4:  BNZ   11DC
11D6:  MOVF   x94,W
11D8:  SUBLW  F3
11DA:  BNC   11E4
....................             { 
11DC:  INCF   x94,F
11DE:  BTFSC  FD8.2
11E0:  INCF   x95,F
11E2:  BRA    11CE
....................             } 
11E4:  INCF   x92,F
11E6:  BTFSC  FD8.2
11E8:  INCF   x93,F
11EA:  BRA    11BA
....................         } 
11EC:  BRA    1000
....................  
....................  
....................     } 
11EE:  RETURN 0
....................  
.................... } 
....................  
....................  
.................... #ORG 0x1352, 0x2000 
....................  
.................... void Task2() 
.................... { 
....................     long t21, t22, t23; 
....................     //int tabla[10] = {63, 6, 91, 79, 102, 109, 125, 7, 127, 103}; 
....................     //int m1, k1, l1; 
....................     do 
....................     { 
....................  
....................  
....................         /*for (t23 = 9; t23 >= 0; t23--) 
....................         { 
....................             output_b(tabla[t23]); 
....................             //printf("-2: %i;", t23); 
....................             for (t21 = 0; t21 < 400; ++t21) 
....................             { 
....................                 for (t22 = 0; t22 < 200; ++t22) 
....................                 { 
....................                 } 
....................  
....................             } 
....................         }*/ 
....................  
....................         output_b(~103); 
*
1352:  CLRF   F93
1354:  MOVLW  98
1356:  MOVWF  F8A
....................         printf("-2: 9;"); 
1358:  MOVLW  9C
135A:  MOVWF  FF6
135C:  MOVLW  05
135E:  MOVWF  FF7
1360:  CALL   057A
....................         for (t21 = 0; t21 < 600; ++t21) 
1364:  CLRF   x93
1366:  CLRF   x92
1368:  MOVF   x93,W
136A:  SUBLW  02
136C:  BNC   1398
136E:  BNZ   1376
1370:  MOVF   x92,W
1372:  SUBLW  57
1374:  BNC   1398
....................         { 
....................             for (t22 = 0; t22 < 500; ++t22) 
1376:  CLRF   x95
1378:  CLRF   x94
137A:  MOVF   x95,W
137C:  SUBLW  01
137E:  BNC   1390
1380:  BNZ   1388
1382:  MOVF   x94,W
1384:  SUBLW  F3
1386:  BNC   1390
....................             { 
1388:  INCF   x94,F
138A:  BTFSC  FD8.2
138C:  INCF   x95,F
138E:  BRA    137A
....................             } 
1390:  INCF   x92,F
1392:  BTFSC  FD8.2
1394:  INCF   x93,F
1396:  BRA    1368
....................  
....................         } 
....................         output_b(~127); 
1398:  CLRF   F93
139A:  MOVLW  80
139C:  MOVWF  F8A
....................         printf("-2: 8;"); 
139E:  MOVLW  A4
13A0:  MOVWF  FF6
13A2:  MOVLW  05
13A4:  MOVWF  FF7
13A6:  CALL   057A
....................         for (t21 = 0; t21 < 600; ++t21) 
13AA:  CLRF   x93
13AC:  CLRF   x92
13AE:  MOVF   x93,W
13B0:  SUBLW  02
13B2:  BNC   13DE
13B4:  BNZ   13BC
13B6:  MOVF   x92,W
13B8:  SUBLW  57
13BA:  BNC   13DE
....................         { 
....................             for (t22 = 0; t22 < 500; ++t22) 
13BC:  CLRF   x95
13BE:  CLRF   x94
13C0:  MOVF   x95,W
13C2:  SUBLW  01
13C4:  BNC   13D6
13C6:  BNZ   13CE
13C8:  MOVF   x94,W
13CA:  SUBLW  F3
13CC:  BNC   13D6
....................             { 
13CE:  INCF   x94,F
13D0:  BTFSC  FD8.2
13D2:  INCF   x95,F
13D4:  BRA    13C0
....................             } 
13D6:  INCF   x92,F
13D8:  BTFSC  FD8.2
13DA:  INCF   x93,F
13DC:  BRA    13AE
....................  
....................         } 
....................         output_b(~7); 
13DE:  CLRF   F93
13E0:  MOVLW  F8
13E2:  MOVWF  F8A
....................         printf("-2: 7;"); 
13E4:  MOVLW  AC
13E6:  MOVWF  FF6
13E8:  MOVLW  05
13EA:  MOVWF  FF7
13EC:  CALL   057A
....................         for (t21 = 0; t21 < 600; ++t21) 
13F0:  CLRF   x93
13F2:  CLRF   x92
13F4:  MOVF   x93,W
13F6:  SUBLW  02
13F8:  BNC   1424
13FA:  BNZ   1402
13FC:  MOVF   x92,W
13FE:  SUBLW  57
1400:  BNC   1424
....................         { 
....................             for (t22 = 0; t22 < 500; ++t22) 
1402:  CLRF   x95
1404:  CLRF   x94
1406:  MOVF   x95,W
1408:  SUBLW  01
140A:  BNC   141C
140C:  BNZ   1414
140E:  MOVF   x94,W
1410:  SUBLW  F3
1412:  BNC   141C
....................             { 
1414:  INCF   x94,F
1416:  BTFSC  FD8.2
1418:  INCF   x95,F
141A:  BRA    1406
....................             } 
141C:  INCF   x92,F
141E:  BTFSC  FD8.2
1420:  INCF   x93,F
1422:  BRA    13F4
....................  
....................         } 
....................         output_b(~125); 
1424:  CLRF   F93
1426:  MOVLW  82
1428:  MOVWF  F8A
....................         printf("-2: 6;"); 
142A:  MOVLW  B4
142C:  MOVWF  FF6
142E:  MOVLW  05
1430:  MOVWF  FF7
1432:  CALL   057A
....................         for (t21 = 0; t21 < 600; ++t21) 
1436:  CLRF   x93
1438:  CLRF   x92
143A:  MOVF   x93,W
143C:  SUBLW  02
143E:  BNC   146A
1440:  BNZ   1448
1442:  MOVF   x92,W
1444:  SUBLW  57
1446:  BNC   146A
....................         { 
....................             for (t22 = 0; t22 < 500; ++t22) 
1448:  CLRF   x95
144A:  CLRF   x94
144C:  MOVF   x95,W
144E:  SUBLW  01
1450:  BNC   1462
1452:  BNZ   145A
1454:  MOVF   x94,W
1456:  SUBLW  F3
1458:  BNC   1462
....................             { 
145A:  INCF   x94,F
145C:  BTFSC  FD8.2
145E:  INCF   x95,F
1460:  BRA    144C
....................             } 
1462:  INCF   x92,F
1464:  BTFSC  FD8.2
1466:  INCF   x93,F
1468:  BRA    143A
....................  
....................         } 
....................         output_b(~109); 
146A:  CLRF   F93
146C:  MOVLW  92
146E:  MOVWF  F8A
....................         printf("-2: 5;"); 
1470:  MOVLW  BC
1472:  MOVWF  FF6
1474:  MOVLW  05
1476:  MOVWF  FF7
1478:  CALL   057A
....................         for (t21 = 0; t21 < 600; ++t21) 
147C:  CLRF   x93
147E:  CLRF   x92
1480:  MOVF   x93,W
1482:  SUBLW  02
1484:  BNC   14B0
1486:  BNZ   148E
1488:  MOVF   x92,W
148A:  SUBLW  57
148C:  BNC   14B0
....................         { 
....................             for (t22 = 0; t22 < 500; ++t22) 
148E:  CLRF   x95
1490:  CLRF   x94
1492:  MOVF   x95,W
1494:  SUBLW  01
1496:  BNC   14A8
1498:  BNZ   14A0
149A:  MOVF   x94,W
149C:  SUBLW  F3
149E:  BNC   14A8
....................             { 
14A0:  INCF   x94,F
14A2:  BTFSC  FD8.2
14A4:  INCF   x95,F
14A6:  BRA    1492
....................             } 
14A8:  INCF   x92,F
14AA:  BTFSC  FD8.2
14AC:  INCF   x93,F
14AE:  BRA    1480
....................  
....................         } 
....................         output_b(~102); 
14B0:  CLRF   F93
14B2:  MOVLW  99
14B4:  MOVWF  F8A
....................         printf("-2: 4;"); 
14B6:  MOVLW  C4
14B8:  MOVWF  FF6
14BA:  MOVLW  05
14BC:  MOVWF  FF7
14BE:  CALL   057A
....................         for (t21 = 0; t21 < 600; ++t21) 
14C2:  CLRF   x93
14C4:  CLRF   x92
14C6:  MOVF   x93,W
14C8:  SUBLW  02
14CA:  BNC   14F6
14CC:  BNZ   14D4
14CE:  MOVF   x92,W
14D0:  SUBLW  57
14D2:  BNC   14F6
....................         { 
....................             for (t22 = 0; t22 < 500; ++t22) 
14D4:  CLRF   x95
14D6:  CLRF   x94
14D8:  MOVF   x95,W
14DA:  SUBLW  01
14DC:  BNC   14EE
14DE:  BNZ   14E6
14E0:  MOVF   x94,W
14E2:  SUBLW  F3
14E4:  BNC   14EE
....................             { 
14E6:  INCF   x94,F
14E8:  BTFSC  FD8.2
14EA:  INCF   x95,F
14EC:  BRA    14D8
....................             } 
14EE:  INCF   x92,F
14F0:  BTFSC  FD8.2
14F2:  INCF   x93,F
14F4:  BRA    14C6
....................  
....................         } 
....................         output_b(~79); 
14F6:  CLRF   F93
14F8:  MOVLW  B0
14FA:  MOVWF  F8A
....................         printf("-2: 3;"); 
14FC:  MOVLW  CC
14FE:  MOVWF  FF6
1500:  MOVLW  05
1502:  MOVWF  FF7
1504:  CALL   057A
....................         for (t21 = 0; t21 < 600; ++t21) 
1508:  CLRF   x93
150A:  CLRF   x92
150C:  MOVF   x93,W
150E:  SUBLW  02
1510:  BNC   153C
1512:  BNZ   151A
1514:  MOVF   x92,W
1516:  SUBLW  57
1518:  BNC   153C
....................         { 
....................             for (t22 = 0; t22 < 500; ++t22) 
151A:  CLRF   x95
151C:  CLRF   x94
151E:  MOVF   x95,W
1520:  SUBLW  01
1522:  BNC   1534
1524:  BNZ   152C
1526:  MOVF   x94,W
1528:  SUBLW  F3
152A:  BNC   1534
....................             { 
152C:  INCF   x94,F
152E:  BTFSC  FD8.2
1530:  INCF   x95,F
1532:  BRA    151E
....................             } 
1534:  INCF   x92,F
1536:  BTFSC  FD8.2
1538:  INCF   x93,F
153A:  BRA    150C
....................  
....................         } 
....................         output_b(~91); 
153C:  CLRF   F93
153E:  MOVLW  A4
1540:  MOVWF  F8A
....................         printf("-2: 2;"); 
1542:  MOVLW  D4
1544:  MOVWF  FF6
1546:  MOVLW  05
1548:  MOVWF  FF7
154A:  CALL   057A
....................         for (t21 = 0; t21 < 600; ++t21) 
154E:  CLRF   x93
1550:  CLRF   x92
1552:  MOVF   x93,W
1554:  SUBLW  02
1556:  BNC   1582
1558:  BNZ   1560
155A:  MOVF   x92,W
155C:  SUBLW  57
155E:  BNC   1582
....................         { 
....................             for (t22 = 0; t22 < 500; ++t22) 
1560:  CLRF   x95
1562:  CLRF   x94
1564:  MOVF   x95,W
1566:  SUBLW  01
1568:  BNC   157A
156A:  BNZ   1572
156C:  MOVF   x94,W
156E:  SUBLW  F3
1570:  BNC   157A
....................             { 
1572:  INCF   x94,F
1574:  BTFSC  FD8.2
1576:  INCF   x95,F
1578:  BRA    1564
....................             } 
157A:  INCF   x92,F
157C:  BTFSC  FD8.2
157E:  INCF   x93,F
1580:  BRA    1552
....................  
....................         } 
....................         output_b(~6); 
1582:  CLRF   F93
1584:  MOVLW  F9
1586:  MOVWF  F8A
....................         printf("-2: 1;"); 
1588:  MOVLW  DC
158A:  MOVWF  FF6
158C:  MOVLW  05
158E:  MOVWF  FF7
1590:  CALL   057A
....................         for (t21 = 0; t21 < 600; ++t21) 
1594:  CLRF   x93
1596:  CLRF   x92
1598:  MOVF   x93,W
159A:  SUBLW  02
159C:  BNC   15C8
159E:  BNZ   15A6
15A0:  MOVF   x92,W
15A2:  SUBLW  57
15A4:  BNC   15C8
....................         { 
....................             for (t22 = 0; t22 < 500; ++t22) 
15A6:  CLRF   x95
15A8:  CLRF   x94
15AA:  MOVF   x95,W
15AC:  SUBLW  01
15AE:  BNC   15C0
15B0:  BNZ   15B8
15B2:  MOVF   x94,W
15B4:  SUBLW  F3
15B6:  BNC   15C0
....................             { 
15B8:  INCF   x94,F
15BA:  BTFSC  FD8.2
15BC:  INCF   x95,F
15BE:  BRA    15AA
....................             } 
15C0:  INCF   x92,F
15C2:  BTFSC  FD8.2
15C4:  INCF   x93,F
15C6:  BRA    1598
....................  
....................         } 
....................         output_b(~63); 
15C8:  CLRF   F93
15CA:  MOVLW  C0
15CC:  MOVWF  F8A
....................         printf("-2: 0;"); 
15CE:  MOVLW  E4
15D0:  MOVWF  FF6
15D2:  MOVLW  05
15D4:  MOVWF  FF7
15D6:  CALL   057A
....................         for (t21 = 0; t21 < 600; ++t21) 
15DA:  CLRF   x93
15DC:  CLRF   x92
15DE:  MOVF   x93,W
15E0:  SUBLW  02
15E2:  BNC   160E
15E4:  BNZ   15EC
15E6:  MOVF   x92,W
15E8:  SUBLW  57
15EA:  BNC   160E
....................         { 
....................             for (t22 = 0; t22 < 500; ++t22) 
15EC:  CLRF   x95
15EE:  CLRF   x94
15F0:  MOVF   x95,W
15F2:  SUBLW  01
15F4:  BNC   1606
15F6:  BNZ   15FE
15F8:  MOVF   x94,W
15FA:  SUBLW  F3
15FC:  BNC   1606
....................             { 
15FE:  INCF   x94,F
1600:  BTFSC  FD8.2
1602:  INCF   x95,F
1604:  BRA    15F0
....................             } 
1606:  INCF   x92,F
1608:  BTFSC  FD8.2
160A:  INCF   x93,F
160C:  BRA    15DE
....................  
....................         } 
....................  
....................  
....................     } 
....................     while (1); 
160E:  BRA    1352
1610:  RETURN 0
....................  
....................  
....................  
....................  
.................... } 
....................  
....................  
.................... //programa 3 (Control de velocidad de un motor) 
.................... #ORG 0x2010, 0x2500 
....................  
.................... void Task3() 
.................... { 
....................     //long t2, t3; 
....................     while (1) 
....................     { 
....................         //for (k1 = 1; k1 < 200; ++k1){ for (l1 = 1; l1 < 200; ++l1){} } 
....................         /*if (input(PIN_C0) == 0 && input(PIN_C1) == 0){ 
....................            CCPR1L = 0x00; 
....................            CCP5 = 0; 
....................            CCP4 = 0; 
....................         } 
....................         if (input(PIN_C0) == 1 && input(PIN_C1) == 1) 
....................         {//1020 
....................          */ 
....................         if (speed == '-') 
*
2010:  MOVF   x78,W
2012:  SUBLW  2D
2014:  BNZ   201E
....................         { 
....................  
....................  
....................             CCPR1L = 0xAA; // 
2016:  MOVLW  AA
2018:  MOVWF  FBE
....................             CCP5 = 1; 
201A:  BSF    FBD.5
....................             CCP4 = 0; 
201C:  BCF    FBD.4
....................             /*for (t2 = 1; t2 < 100; ++t2) 
....................             { 
....................                 for (t3 = 1; t3 < 50; ++t3) 
....................                 { 
....................                 } 
....................             }*/ 
....................         } 
....................  
....................         if (speed == '+') 
201E:  MOVF   x78,W
2020:  SUBLW  2B
2022:  BNZ   202C
....................         { 
....................             CCPR1L = 0x55; 
2024:  MOVLW  55
2026:  MOVWF  FBE
....................            CCP5 = 0; 
2028:  BCF    FBD.5
....................            CCP4 = 1; 
202A:  BSF    FBD.4
....................             /*for (t2 = 1; t2 < 100; ++t2) 
....................             { 
....................                 for (t3 = 1; t3 < 50; ++t3) 
....................                 { 
....................                 } 
....................             }*/ 
....................         } 
202C:  BRA    2010
....................         // 
....................         /*} 
....................         if (input(PIN_C0) == 0 && input(PIN_C1) == 1) 
....................         { 
....................            //682 
....................            CCPR1L = 0xAA;// 
....................            CCP5 = 1; 
....................            CCP4 = 0; 
....................         } 
....................         if (input(PIN_C0) == 1 && input(PIN_C1) == 0) 
....................         {//341 
....................            CCPR1L = 0x55; 
....................            CCP5 = 0; 
....................            CCP4 = 1; 
....................         }*/ 
....................     } 
202E:  RETURN 0
.................... } 
....................  
....................  
....................  
.................... // pROG 6 
.................... #ORG 0x2510, 0x3000 
....................  
.................... void Task4(void) 
.................... { 
....................     /*while (1){ 
....................        if (RCIF == 0X01){//Lectura del flag 
....................           cmd = getc(); 
....................  
....................           //if (n=='l'&&(PIR1.5==1)){ 
....................           if (cmd == 'l'){ 
....................              read = 1; 
....................           } 
....................           RCIF = 0X00; //Borrado de bandera 
....................        } 
....................     }*/ 
....................  
....................     long vk1, vl1; 
....................     while (1) 
....................     { 
....................         output_high(PIN_D1); 
*
2510:  BCF    F95.1
2512:  BSF    F8C.1
....................         output_high(PIN_D2); 
2514:  BCF    F95.2
2516:  BSF    F8C.2
....................  
....................         output_low(PIN_D4); 
2518:  BCF    F95.4
251A:  BCF    F8C.4
....................         output_low(PIN_D5); 
251C:  BCF    F95.5
251E:  BCF    F8C.5
....................  
....................         output_low(PIN_D6); 
2520:  BCF    F95.6
2522:  BCF    F8C.6
....................         output_low(PIN_D7); 
2524:  BCF    F95.7
2526:  BCF    F8C.7
....................  
....................         for (vk1 = 1; vk1 < 300; ++vk1) 
2528:  CLRF   x93
252A:  MOVLW  01
252C:  MOVWF  x92
252E:  MOVF   x93,W
2530:  SUBLW  01
2532:  BNC   2560
2534:  BNZ   253C
2536:  MOVF   x92,W
2538:  SUBLW  2B
253A:  BNC   2560
....................         { 
....................             for (vl1 = 1; vl1 < 500; ++vl1) 
253C:  CLRF   x95
253E:  MOVLW  01
2540:  MOVWF  x94
2542:  MOVF   x95,W
2544:  SUBLW  01
2546:  BNC   2558
2548:  BNZ   2550
254A:  MOVF   x94,W
254C:  SUBLW  F3
254E:  BNC   2558
....................             { 
2550:  INCF   x94,F
2552:  BTFSC  FD8.2
2554:  INCF   x95,F
2556:  BRA    2542
....................             } 
2558:  INCF   x92,F
255A:  BTFSC  FD8.2
255C:  INCF   x93,F
255E:  BRA    252E
....................         } 
....................         output_low(PIN_D1); 
2560:  BCF    F95.1
2562:  BCF    F8C.1
....................         output_low(PIN_D2); 
2564:  BCF    F95.2
2566:  BCF    F8C.2
....................  
....................         output_high(PIN_D4); 
2568:  BCF    F95.4
256A:  BSF    F8C.4
....................         output_high(PIN_D5); 
256C:  BCF    F95.5
256E:  BSF    F8C.5
....................         for (vk1 = 1; vk1 < 300; ++vk1) 
2570:  CLRF   x93
2572:  MOVLW  01
2574:  MOVWF  x92
2576:  MOVF   x93,W
2578:  SUBLW  01
257A:  BNC   25A8
257C:  BNZ   2584
257E:  MOVF   x92,W
2580:  SUBLW  2B
2582:  BNC   25A8
....................         { 
....................             for (vl1 = 1; vl1 < 500; ++vl1) 
2584:  CLRF   x95
2586:  MOVLW  01
2588:  MOVWF  x94
258A:  MOVF   x95,W
258C:  SUBLW  01
258E:  BNC   25A0
2590:  BNZ   2598
2592:  MOVF   x94,W
2594:  SUBLW  F3
2596:  BNC   25A0
....................             { 
2598:  INCF   x94,F
259A:  BTFSC  FD8.2
259C:  INCF   x95,F
259E:  BRA    258A
....................             } 
25A0:  INCF   x92,F
25A2:  BTFSC  FD8.2
25A4:  INCF   x93,F
25A6:  BRA    2576
....................         } 
....................         output_low(PIN_D4); 
25A8:  BCF    F95.4
25AA:  BCF    F8C.4
....................         output_low(PIN_D5); 
25AC:  BCF    F95.5
25AE:  BCF    F8C.5
....................  
....................         output_high(PIN_D6); 
25B0:  BCF    F95.6
25B2:  BSF    F8C.6
....................         output_high(PIN_D7); 
25B4:  BCF    F95.7
25B6:  BSF    F8C.7
....................  
....................         for (vk1 = 1; vk1 < 300; ++vk1) 
25B8:  CLRF   x93
25BA:  MOVLW  01
25BC:  MOVWF  x92
25BE:  MOVF   x93,W
25C0:  SUBLW  01
25C2:  BNC   25F0
25C4:  BNZ   25CC
25C6:  MOVF   x92,W
25C8:  SUBLW  2B
25CA:  BNC   25F0
....................         { 
....................             for (vl1 = 1; vl1 < 500; ++vl1) 
25CC:  CLRF   x95
25CE:  MOVLW  01
25D0:  MOVWF  x94
25D2:  MOVF   x95,W
25D4:  SUBLW  01
25D6:  BNC   25E8
25D8:  BNZ   25E0
25DA:  MOVF   x94,W
25DC:  SUBLW  F3
25DE:  BNC   25E8
....................             { 
25E0:  INCF   x94,F
25E2:  BTFSC  FD8.2
25E4:  INCF   x95,F
25E6:  BRA    25D2
....................             } 
25E8:  INCF   x92,F
25EA:  BTFSC  FD8.2
25EC:  INCF   x93,F
25EE:  BRA    25BE
....................         } 
....................  
....................         output_low(PIN_D6); 
25F0:  BCF    F95.6
25F2:  BCF    F8C.6
....................         output_low(PIN_D7); 
25F4:  BCF    F95.7
25F6:  BCF    F8C.7
....................  
....................         output_high(PIN_D1); 
25F8:  BCF    F95.1
25FA:  BSF    F8C.1
....................         output_high(PIN_D2); 
25FC:  BCF    F95.2
25FE:  BSF    F8C.2
....................  
....................         for (vk1 = 1; vk1 < 300; ++vk1) 
2600:  CLRF   x93
2602:  MOVLW  01
2604:  MOVWF  x92
2606:  MOVF   x93,W
2608:  SUBLW  01
260A:  BNC   2638
260C:  BNZ   2614
260E:  MOVF   x92,W
2610:  SUBLW  2B
2612:  BNC   2638
....................         { 
....................             for (vl1 = 1; vl1 < 500; ++vl1) 
2614:  CLRF   x95
2616:  MOVLW  01
2618:  MOVWF  x94
261A:  MOVF   x95,W
261C:  SUBLW  01
261E:  BNC   2630
2620:  BNZ   2628
2622:  MOVF   x94,W
2624:  SUBLW  F3
2626:  BNC   2630
....................             { 
2628:  INCF   x94,F
262A:  BTFSC  FD8.2
262C:  INCF   x95,F
262E:  BRA    261A
....................             } 
2630:  INCF   x92,F
2632:  BTFSC  FD8.2
2634:  INCF   x93,F
2636:  BRA    2606
....................         } 
....................         output_low(PIN_D1); 
2638:  BCF    F95.1
263A:  BCF    F8C.1
....................         output_low(PIN_D2); 
263C:  BCF    F95.2
263E:  BCF    F8C.2
....................  
....................         output_high(PIN_D4); 
2640:  BCF    F95.4
2642:  BSF    F8C.4
....................         output_high(PIN_D5); 
2644:  BCF    F95.5
2646:  BSF    F8C.5
....................         for (vk1 = 1; vk1 < 300; ++vk1) 
2648:  CLRF   x93
264A:  MOVLW  01
264C:  MOVWF  x92
264E:  MOVF   x93,W
2650:  SUBLW  01
2652:  BNC   2680
2654:  BNZ   265C
2656:  MOVF   x92,W
2658:  SUBLW  2B
265A:  BNC   2680
....................         { 
....................             for (vl1 = 1; vl1 < 500; ++vl1) 
265C:  CLRF   x95
265E:  MOVLW  01
2660:  MOVWF  x94
2662:  MOVF   x95,W
2664:  SUBLW  01
2666:  BNC   2678
2668:  BNZ   2670
266A:  MOVF   x94,W
266C:  SUBLW  F3
266E:  BNC   2678
....................             { 
2670:  INCF   x94,F
2672:  BTFSC  FD8.2
2674:  INCF   x95,F
2676:  BRA    2662
....................             } 
2678:  INCF   x92,F
267A:  BTFSC  FD8.2
267C:  INCF   x93,F
267E:  BRA    264E
....................         } 
....................         output_low(PIN_D4); 
2680:  BCF    F95.4
2682:  BCF    F8C.4
....................         output_low(PIN_D5); 
2684:  BCF    F95.5
2686:  BCF    F8C.5
....................  
....................         output_high(PIN_D6); 
2688:  BCF    F95.6
268A:  BSF    F8C.6
....................         output_high(PIN_D7); 
268C:  BCF    F95.7
268E:  BSF    F8C.7
....................  
....................         for (vk1 = 1; vk1 < 300; ++vk1) 
2690:  CLRF   x93
2692:  MOVLW  01
2694:  MOVWF  x92
2696:  MOVF   x93,W
2698:  SUBLW  01
269A:  BNC   26C8
269C:  BNZ   26A4
269E:  MOVF   x92,W
26A0:  SUBLW  2B
26A2:  BNC   26C8
....................         { 
....................             for (vl1 = 1; vl1 < 500; ++vl1) 
26A4:  CLRF   x95
26A6:  MOVLW  01
26A8:  MOVWF  x94
26AA:  MOVF   x95,W
26AC:  SUBLW  01
26AE:  BNC   26C0
26B0:  BNZ   26B8
26B2:  MOVF   x94,W
26B4:  SUBLW  F3
26B6:  BNC   26C0
....................             { 
26B8:  INCF   x94,F
26BA:  BTFSC  FD8.2
26BC:  INCF   x95,F
26BE:  BRA    26AA
....................             } 
26C0:  INCF   x92,F
26C2:  BTFSC  FD8.2
26C4:  INCF   x93,F
26C6:  BRA    2696
....................         } 
....................  
....................  
....................         output_low(PIN_D1); 
26C8:  BCF    F95.1
26CA:  BCF    F8C.1
....................         output_low(PIN_D2); 
26CC:  BCF    F95.2
26CE:  BCF    F8C.2
....................  
....................         output_low(PIN_D4); 
26D0:  BCF    F95.4
26D2:  BCF    F8C.4
....................         output_low(PIN_D5); 
26D4:  BCF    F95.5
26D6:  BCF    F8C.5
....................  
....................         output_low(PIN_D6); 
26D8:  BCF    F95.6
26DA:  BCF    F8C.6
....................         output_low(PIN_D7); 
26DC:  BCF    F95.7
26DE:  BCF    F8C.7
....................  
....................         for (vk1 = 1; vk1 < 300; ++vk1) 
26E0:  CLRF   x93
26E2:  MOVLW  01
26E4:  MOVWF  x92
26E6:  MOVF   x93,W
26E8:  SUBLW  01
26EA:  BNC   2718
26EC:  BNZ   26F4
26EE:  MOVF   x92,W
26F0:  SUBLW  2B
26F2:  BNC   2718
....................         { 
....................             for (vl1 = 1; vl1 < 500; ++vl1) 
26F4:  CLRF   x95
26F6:  MOVLW  01
26F8:  MOVWF  x94
26FA:  MOVF   x95,W
26FC:  SUBLW  01
26FE:  BNC   2710
2700:  BNZ   2708
2702:  MOVF   x94,W
2704:  SUBLW  F3
2706:  BNC   2710
....................             { 
2708:  INCF   x94,F
270A:  BTFSC  FD8.2
270C:  INCF   x95,F
270E:  BRA    26FA
....................             } 
2710:  INCF   x92,F
2712:  BTFSC  FD8.2
2714:  INCF   x93,F
2716:  BRA    26E6
....................         } 
....................         output_high(PIN_D1); 
2718:  BCF    F95.1
271A:  BSF    F8C.1
....................         for (vk1 = 1; vk1 < 300; ++vk1) 
271C:  CLRF   x93
271E:  MOVLW  01
2720:  MOVWF  x92
2722:  MOVF   x93,W
2724:  SUBLW  01
2726:  BNC   2754
2728:  BNZ   2730
272A:  MOVF   x92,W
272C:  SUBLW  2B
272E:  BNC   2754
....................         { 
....................             for (vl1 = 1; vl1 < 500; ++vl1) 
2730:  CLRF   x95
2732:  MOVLW  01
2734:  MOVWF  x94
2736:  MOVF   x95,W
2738:  SUBLW  01
273A:  BNC   274C
273C:  BNZ   2744
273E:  MOVF   x94,W
2740:  SUBLW  F3
2742:  BNC   274C
....................             { 
2744:  INCF   x94,F
2746:  BTFSC  FD8.2
2748:  INCF   x95,F
274A:  BRA    2736
....................             } 
274C:  INCF   x92,F
274E:  BTFSC  FD8.2
2750:  INCF   x93,F
2752:  BRA    2722
....................         } 
....................         output_low(PIN_D1); 
2754:  BCF    F95.1
2756:  BCF    F8C.1
....................         output_high(PIN_D2); 
2758:  BCF    F95.2
275A:  BSF    F8C.2
....................  
....................         for (vk1 = 1; vk1 < 300; ++vk1) 
275C:  CLRF   x93
275E:  MOVLW  01
2760:  MOVWF  x92
2762:  MOVF   x93,W
2764:  SUBLW  01
2766:  BNC   2794
2768:  BNZ   2770
276A:  MOVF   x92,W
276C:  SUBLW  2B
276E:  BNC   2794
....................         { 
....................             for (vl1 = 1; vl1 < 500; ++vl1) 
2770:  CLRF   x95
2772:  MOVLW  01
2774:  MOVWF  x94
2776:  MOVF   x95,W
2778:  SUBLW  01
277A:  BNC   278C
277C:  BNZ   2784
277E:  MOVF   x94,W
2780:  SUBLW  F3
2782:  BNC   278C
....................             { 
2784:  INCF   x94,F
2786:  BTFSC  FD8.2
2788:  INCF   x95,F
278A:  BRA    2776
....................             } 
278C:  INCF   x92,F
278E:  BTFSC  FD8.2
2790:  INCF   x93,F
2792:  BRA    2762
....................         } 
....................         output_low(PIN_D2); 
2794:  BCF    F95.2
2796:  BCF    F8C.2
....................         output_high(PIN_D4); 
2798:  BCF    F95.4
279A:  BSF    F8C.4
....................  
....................         for (vk1 = 1; vk1 < 300; ++vk1) 
279C:  CLRF   x93
279E:  MOVLW  01
27A0:  MOVWF  x92
27A2:  MOVF   x93,W
27A4:  SUBLW  01
27A6:  BNC   27D4
27A8:  BNZ   27B0
27AA:  MOVF   x92,W
27AC:  SUBLW  2B
27AE:  BNC   27D4
....................         { 
....................             for (vl1 = 1; vl1 < 500; ++vl1) 
27B0:  CLRF   x95
27B2:  MOVLW  01
27B4:  MOVWF  x94
27B6:  MOVF   x95,W
27B8:  SUBLW  01
27BA:  BNC   27CC
27BC:  BNZ   27C4
27BE:  MOVF   x94,W
27C0:  SUBLW  F3
27C2:  BNC   27CC
....................             { 
27C4:  INCF   x94,F
27C6:  BTFSC  FD8.2
27C8:  INCF   x95,F
27CA:  BRA    27B6
....................             } 
27CC:  INCF   x92,F
27CE:  BTFSC  FD8.2
27D0:  INCF   x93,F
27D2:  BRA    27A2
....................         } 
....................         output_low(PIN_D4); 
27D4:  BCF    F95.4
27D6:  BCF    F8C.4
....................         output_high(PIN_D5); 
27D8:  BCF    F95.5
27DA:  BSF    F8C.5
....................  
....................  
....................         for (vk1 = 1; vk1 < 300; ++vk1) 
27DC:  CLRF   x93
27DE:  MOVLW  01
27E0:  MOVWF  x92
27E2:  MOVF   x93,W
27E4:  SUBLW  01
27E6:  BNC   2814
27E8:  BNZ   27F0
27EA:  MOVF   x92,W
27EC:  SUBLW  2B
27EE:  BNC   2814
....................         { 
....................             for (vl1 = 1; vl1 < 500; ++vl1) 
27F0:  CLRF   x95
27F2:  MOVLW  01
27F4:  MOVWF  x94
27F6:  MOVF   x95,W
27F8:  SUBLW  01
27FA:  BNC   280C
27FC:  BNZ   2804
27FE:  MOVF   x94,W
2800:  SUBLW  F3
2802:  BNC   280C
....................             { 
2804:  INCF   x94,F
2806:  BTFSC  FD8.2
2808:  INCF   x95,F
280A:  BRA    27F6
....................             } 
280C:  INCF   x92,F
280E:  BTFSC  FD8.2
2810:  INCF   x93,F
2812:  BRA    27E2
....................         } 
....................         output_low(PIN_D5); 
2814:  BCF    F95.5
2816:  BCF    F8C.5
....................         output_high(PIN_D6); 
2818:  BCF    F95.6
281A:  BSF    F8C.6
....................  
....................         for (vk1 = 1; vk1 < 300; ++vk1) 
281C:  CLRF   x93
281E:  MOVLW  01
2820:  MOVWF  x92
2822:  MOVF   x93,W
2824:  SUBLW  01
2826:  BNC   2854
2828:  BNZ   2830
282A:  MOVF   x92,W
282C:  SUBLW  2B
282E:  BNC   2854
....................         { 
....................             for (vl1 = 1; vl1 < 500; ++vl1) 
2830:  CLRF   x95
2832:  MOVLW  01
2834:  MOVWF  x94
2836:  MOVF   x95,W
2838:  SUBLW  01
283A:  BNC   284C
283C:  BNZ   2844
283E:  MOVF   x94,W
2840:  SUBLW  F3
2842:  BNC   284C
....................             { 
2844:  INCF   x94,F
2846:  BTFSC  FD8.2
2848:  INCF   x95,F
284A:  BRA    2836
....................             } 
284C:  INCF   x92,F
284E:  BTFSC  FD8.2
2850:  INCF   x93,F
2852:  BRA    2822
....................         } 
....................         output_low(PIN_D6); 
2854:  BCF    F95.6
2856:  BCF    F8C.6
....................         output_high(PIN_D7); 
2858:  BCF    F95.7
285A:  BSF    F8C.7
....................  
....................         for (vk1 = 1; vk1 < 300; ++vk1) 
285C:  CLRF   x93
285E:  MOVLW  01
2860:  MOVWF  x92
2862:  MOVF   x93,W
2864:  SUBLW  01
2866:  BNC   2894
2868:  BNZ   2870
286A:  MOVF   x92,W
286C:  SUBLW  2B
286E:  BNC   2894
....................         { 
....................             for (vl1 = 1; vl1 < 500; ++vl1) 
2870:  CLRF   x95
2872:  MOVLW  01
2874:  MOVWF  x94
2876:  MOVF   x95,W
2878:  SUBLW  01
287A:  BNC   288C
287C:  BNZ   2884
287E:  MOVF   x94,W
2880:  SUBLW  F3
2882:  BNC   288C
....................             { 
2884:  INCF   x94,F
2886:  BTFSC  FD8.2
2888:  INCF   x95,F
288A:  BRA    2876
....................             } 
288C:  INCF   x92,F
288E:  BTFSC  FD8.2
2890:  INCF   x93,F
2892:  BRA    2862
....................         } 
....................  
....................  
....................  
....................  
....................         /// 
....................  
....................         output_low(PIN_D7); 
2894:  BCF    F95.7
2896:  BCF    F8C.7
....................         output_high(PIN_D1); 
2898:  BCF    F95.1
289A:  BSF    F8C.1
....................         for (vk1 = 1; vk1 < 300; ++vk1) 
289C:  CLRF   x93
289E:  MOVLW  01
28A0:  MOVWF  x92
28A2:  MOVF   x93,W
28A4:  SUBLW  01
28A6:  BNC   28D4
28A8:  BNZ   28B0
28AA:  MOVF   x92,W
28AC:  SUBLW  2B
28AE:  BNC   28D4
....................         { 
....................             for (vl1 = 1; vl1 < 500; ++vl1) 
28B0:  CLRF   x95
28B2:  MOVLW  01
28B4:  MOVWF  x94
28B6:  MOVF   x95,W
28B8:  SUBLW  01
28BA:  BNC   28CC
28BC:  BNZ   28C4
28BE:  MOVF   x94,W
28C0:  SUBLW  F3
28C2:  BNC   28CC
....................             { 
28C4:  INCF   x94,F
28C6:  BTFSC  FD8.2
28C8:  INCF   x95,F
28CA:  BRA    28B6
....................             } 
28CC:  INCF   x92,F
28CE:  BTFSC  FD8.2
28D0:  INCF   x93,F
28D2:  BRA    28A2
....................         } 
....................         output_low(PIN_D1); 
28D4:  BCF    F95.1
28D6:  BCF    F8C.1
....................         output_high(PIN_D2); 
28D8:  BCF    F95.2
28DA:  BSF    F8C.2
....................  
....................         for (vk1 = 1; vk1 < 300; ++vk1) 
28DC:  CLRF   x93
28DE:  MOVLW  01
28E0:  MOVWF  x92
28E2:  MOVF   x93,W
28E4:  SUBLW  01
28E6:  BNC   2914
28E8:  BNZ   28F0
28EA:  MOVF   x92,W
28EC:  SUBLW  2B
28EE:  BNC   2914
....................         { 
....................             for (vl1 = 1; vl1 < 500; ++vl1) 
28F0:  CLRF   x95
28F2:  MOVLW  01
28F4:  MOVWF  x94
28F6:  MOVF   x95,W
28F8:  SUBLW  01
28FA:  BNC   290C
28FC:  BNZ   2904
28FE:  MOVF   x94,W
2900:  SUBLW  F3
2902:  BNC   290C
....................             { 
2904:  INCF   x94,F
2906:  BTFSC  FD8.2
2908:  INCF   x95,F
290A:  BRA    28F6
....................             } 
290C:  INCF   x92,F
290E:  BTFSC  FD8.2
2910:  INCF   x93,F
2912:  BRA    28E2
....................         } 
....................         output_low(PIN_D2); 
2914:  BCF    F95.2
2916:  BCF    F8C.2
....................         output_high(PIN_D4); 
2918:  BCF    F95.4
291A:  BSF    F8C.4
....................  
....................         for (vk1 = 1; vk1 < 300; ++vk1) 
291C:  CLRF   x93
291E:  MOVLW  01
2920:  MOVWF  x92
2922:  MOVF   x93,W
2924:  SUBLW  01
2926:  BNC   2954
2928:  BNZ   2930
292A:  MOVF   x92,W
292C:  SUBLW  2B
292E:  BNC   2954
....................         { 
....................             for (vl1 = 1; vl1 < 500; ++vl1) 
2930:  CLRF   x95
2932:  MOVLW  01
2934:  MOVWF  x94
2936:  MOVF   x95,W
2938:  SUBLW  01
293A:  BNC   294C
293C:  BNZ   2944
293E:  MOVF   x94,W
2940:  SUBLW  F3
2942:  BNC   294C
....................             { 
2944:  INCF   x94,F
2946:  BTFSC  FD8.2
2948:  INCF   x95,F
294A:  BRA    2936
....................             } 
294C:  INCF   x92,F
294E:  BTFSC  FD8.2
2950:  INCF   x93,F
2952:  BRA    2922
....................         } 
....................         output_low(PIN_D4); 
2954:  BCF    F95.4
2956:  BCF    F8C.4
....................         output_high(PIN_D5); 
2958:  BCF    F95.5
295A:  BSF    F8C.5
....................  
....................  
....................         for (vk1 = 1; vk1 < 300; ++vk1) 
295C:  CLRF   x93
295E:  MOVLW  01
2960:  MOVWF  x92
2962:  MOVF   x93,W
2964:  SUBLW  01
2966:  BNC   2994
2968:  BNZ   2970
296A:  MOVF   x92,W
296C:  SUBLW  2B
296E:  BNC   2994
....................         { 
....................             for (vl1 = 1; vl1 < 500; ++vl1) 
2970:  CLRF   x95
2972:  MOVLW  01
2974:  MOVWF  x94
2976:  MOVF   x95,W
2978:  SUBLW  01
297A:  BNC   298C
297C:  BNZ   2984
297E:  MOVF   x94,W
2980:  SUBLW  F3
2982:  BNC   298C
....................             { 
2984:  INCF   x94,F
2986:  BTFSC  FD8.2
2988:  INCF   x95,F
298A:  BRA    2976
....................             } 
298C:  INCF   x92,F
298E:  BTFSC  FD8.2
2990:  INCF   x93,F
2992:  BRA    2962
....................         } 
....................         output_low(PIN_D5); 
2994:  BCF    F95.5
2996:  BCF    F8C.5
....................         output_high(PIN_D6); 
2998:  BCF    F95.6
299A:  BSF    F8C.6
....................  
....................         for (vk1 = 1; vk1 < 300; ++vk1) 
299C:  CLRF   x93
299E:  MOVLW  01
29A0:  MOVWF  x92
29A2:  MOVF   x93,W
29A4:  SUBLW  01
29A6:  BNC   29D4
29A8:  BNZ   29B0
29AA:  MOVF   x92,W
29AC:  SUBLW  2B
29AE:  BNC   29D4
....................         { 
....................             for (vl1 = 1; vl1 < 500; ++vl1) 
29B0:  CLRF   x95
29B2:  MOVLW  01
29B4:  MOVWF  x94
29B6:  MOVF   x95,W
29B8:  SUBLW  01
29BA:  BNC   29CC
29BC:  BNZ   29C4
29BE:  MOVF   x94,W
29C0:  SUBLW  F3
29C2:  BNC   29CC
....................             { 
29C4:  INCF   x94,F
29C6:  BTFSC  FD8.2
29C8:  INCF   x95,F
29CA:  BRA    29B6
....................             } 
29CC:  INCF   x92,F
29CE:  BTFSC  FD8.2
29D0:  INCF   x93,F
29D2:  BRA    29A2
....................         } 
....................         output_low(PIN_D6); 
29D4:  BCF    F95.6
29D6:  BCF    F8C.6
....................         output_high(PIN_D7); 
29D8:  BCF    F95.7
29DA:  BSF    F8C.7
....................  
....................         for (vk1 = 1; vk1 < 300; ++vk1) 
29DC:  CLRF   x93
29DE:  MOVLW  01
29E0:  MOVWF  x92
29E2:  MOVF   x93,W
29E4:  SUBLW  01
29E6:  BNC   2A14
29E8:  BNZ   29F0
29EA:  MOVF   x92,W
29EC:  SUBLW  2B
29EE:  BNC   2A14
....................         { 
....................             for (vl1 = 1; vl1 < 500; ++vl1) 
29F0:  CLRF   x95
29F2:  MOVLW  01
29F4:  MOVWF  x94
29F6:  MOVF   x95,W
29F8:  SUBLW  01
29FA:  BNC   2A0C
29FC:  BNZ   2A04
29FE:  MOVF   x94,W
2A00:  SUBLW  F3
2A02:  BNC   2A0C
....................             { 
2A04:  INCF   x94,F
2A06:  BTFSC  FD8.2
2A08:  INCF   x95,F
2A0A:  BRA    29F6
....................             } 
2A0C:  INCF   x92,F
2A0E:  BTFSC  FD8.2
2A10:  INCF   x93,F
2A12:  BRA    29E2
....................         } 
2A14:  BRA    2510
....................  
....................     } 
2A16:  RETURN 0
....................  
....................  
....................  
.................... } 
....................  
....................  
....................  
.................... // Prog 7 
....................  
.................... #ORG 0x3010, 0x3500 
....................  
.................... void Task5(void) 
.................... { 
....................     long l1, k1; 
....................     while (1) 
....................     { 
....................  
....................         output_low(PIN_E0); 
*
3010:  BCF    F96.0
3012:  BCF    F8D.0
....................         output_low(PIN_E1); 
3014:  BCF    F96.1
3016:  BCF    F8D.1
....................         output_low(PIN_E2); 
3018:  BCF    F96.2
301A:  BCF    F8D.2
....................         for (l1 = 1; l1 < 400; ++l1) 
301C:  CLRF   x93
301E:  MOVLW  01
3020:  MOVWF  x92
3022:  MOVF   x93,W
3024:  SUBLW  01
3026:  BNC   3054
3028:  BNZ   3030
302A:  MOVF   x92,W
302C:  SUBLW  8F
302E:  BNC   3054
....................         { 
....................             for (k1 = 1; k1 < 500; ++k1) 
3030:  CLRF   x95
3032:  MOVLW  01
3034:  MOVWF  x94
3036:  MOVF   x95,W
3038:  SUBLW  01
303A:  BNC   304C
303C:  BNZ   3044
303E:  MOVF   x94,W
3040:  SUBLW  F3
3042:  BNC   304C
....................             { 
3044:  INCF   x94,F
3046:  BTFSC  FD8.2
3048:  INCF   x95,F
304A:  BRA    3036
....................             } 
304C:  INCF   x92,F
304E:  BTFSC  FD8.2
3050:  INCF   x93,F
3052:  BRA    3022
....................         } 
....................         output_high(PIN_E0); 
3054:  BCF    F96.0
3056:  BSF    F8D.0
....................         for (l1 = 1; l1 < 400; ++l1) 
3058:  CLRF   x93
305A:  MOVLW  01
305C:  MOVWF  x92
305E:  MOVF   x93,W
3060:  SUBLW  01
3062:  BNC   3090
3064:  BNZ   306C
3066:  MOVF   x92,W
3068:  SUBLW  8F
306A:  BNC   3090
....................         { 
....................             for (k1 = 1; k1 < 500; ++k1) 
306C:  CLRF   x95
306E:  MOVLW  01
3070:  MOVWF  x94
3072:  MOVF   x95,W
3074:  SUBLW  01
3076:  BNC   3088
3078:  BNZ   3080
307A:  MOVF   x94,W
307C:  SUBLW  F3
307E:  BNC   3088
....................             { 
3080:  INCF   x94,F
3082:  BTFSC  FD8.2
3084:  INCF   x95,F
3086:  BRA    3072
....................             } 
3088:  INCF   x92,F
308A:  BTFSC  FD8.2
308C:  INCF   x93,F
308E:  BRA    305E
....................         } 
....................         output_high(PIN_E1); 
3090:  BCF    F96.1
3092:  BSF    F8D.1
....................         output_low(PIN_E0); 
3094:  BCF    F96.0
3096:  BCF    F8D.0
....................         for (l1 = 1; l1 < 400; ++l1) 
3098:  CLRF   x93
309A:  MOVLW  01
309C:  MOVWF  x92
309E:  MOVF   x93,W
30A0:  SUBLW  01
30A2:  BNC   30D0
30A4:  BNZ   30AC
30A6:  MOVF   x92,W
30A8:  SUBLW  8F
30AA:  BNC   30D0
....................         { 
....................             for (k1 = 1; k1 < 500; ++k1) 
30AC:  CLRF   x95
30AE:  MOVLW  01
30B0:  MOVWF  x94
30B2:  MOVF   x95,W
30B4:  SUBLW  01
30B6:  BNC   30C8
30B8:  BNZ   30C0
30BA:  MOVF   x94,W
30BC:  SUBLW  F3
30BE:  BNC   30C8
....................             { 
30C0:  INCF   x94,F
30C2:  BTFSC  FD8.2
30C4:  INCF   x95,F
30C6:  BRA    30B2
....................             } 
30C8:  INCF   x92,F
30CA:  BTFSC  FD8.2
30CC:  INCF   x93,F
30CE:  BRA    309E
....................         } 
....................         output_high(PIN_E2); 
30D0:  BCF    F96.2
30D2:  BSF    F8D.2
....................         output_low(PIN_E1); 
30D4:  BCF    F96.1
30D6:  BCF    F8D.1
....................         for (l1 = 1; l1 < 400; ++l1) 
30D8:  CLRF   x93
30DA:  MOVLW  01
30DC:  MOVWF  x92
30DE:  MOVF   x93,W
30E0:  SUBLW  01
30E2:  BNC   3110
30E4:  BNZ   30EC
30E6:  MOVF   x92,W
30E8:  SUBLW  8F
30EA:  BNC   3110
....................         { 
....................             for (k1 = 1; k1 < 500; ++k1) 
30EC:  CLRF   x95
30EE:  MOVLW  01
30F0:  MOVWF  x94
30F2:  MOVF   x95,W
30F4:  SUBLW  01
30F6:  BNC   3108
30F8:  BNZ   3100
30FA:  MOVF   x94,W
30FC:  SUBLW  F3
30FE:  BNC   3108
....................             { 
3100:  INCF   x94,F
3102:  BTFSC  FD8.2
3104:  INCF   x95,F
3106:  BRA    30F2
....................             } 
3108:  INCF   x92,F
310A:  BTFSC  FD8.2
310C:  INCF   x93,F
310E:  BRA    30DE
....................         } 
3110:  BRA    3010
....................     } 
3112:  RETURN 0
.................... } 
....................  
.................... void Port_Init() 
.................... { 
....................     USBEN = 0; 
*
09E4:  BCF    F6D.3
....................     set_tris_a(0b11110010); 
09E6:  MOVLW  F2
09E8:  MOVWF  F92
....................     set_tris_b(0x00); 
09EA:  MOVLW  00
09EC:  MOVWF  F93
....................     set_tris_c(0b11000000); 
09EE:  MOVLW  C0
09F0:  MOVWF  F94
....................     set_tris_d(0x00); 
09F2:  MOVLW  00
09F4:  MOVWF  F95
....................     set_tris_e(0x00); 
09F6:  MOVWF  F96
....................  
....................     output_a(0x00); 
09F8:  CLRF   F92
09FA:  CLRF   F89
....................     output_b(0xFF); 
09FC:  CLRF   F93
09FE:  SETF   F8A
....................     output_c(0x00); 
0A00:  CLRF   F94
0A02:  CLRF   F8B
....................     output_d(0x00); 
0A04:  CLRF   F95
0A06:  CLRF   F8C
....................     output_e(0x00); 
0A08:  CLRF   F96
0A0A:  CLRF   F8D
....................     output_low(PIN_B7); 
0A0C:  BCF    F93.7
0A0E:  BCF    F8A.7
0A10:  GOTO   0AF2 (RETURN)
.................... } 
....................  
.................... void inte_Init() 
.................... { 
....................     enable_interrupts(GLOBAL); 
*
0AD4:  MOVLW  C0
0AD6:  IORWF  FF2,F
....................     enable_interrupts(INT_RDA); 
0AD8:  BSF    F9D.5
0ADA:  GOTO   0AF8 (RETURN)
.................... } 
....................  
.................... void Config_tmrs() 
.................... { 
....................     //setup_timer_1(T1_EXTERNAL|T1_DIV_BY_8);      //26.2 ms overflow 
....................     //setup_timer_1(T1_EXTERNAL|T1_DIV_BY_1| 0x8); 
....................     // T0CON=0b10000111; 
....................     //T0CON = 0b10000101; //A 1s 
....................     //T1CON = 0b11110001; //Bits 5-4: prescaler a 8 
....................  
....................     //setup_timer_1(T1_INTERNAL|T1_DIV_BY_8);      //43.6 ms overflow 
....................     //setup_timer_0(RTCC_INTERNAL | RTCC_DIV_256); //1.4 s overflow 
....................     setup_timer_0(RTCC_INTERNAL | RTCC_DIV_128); //699 ms overflow 
0ADE:  MOVLW  86
0AE0:  MOVWF  FD5
....................     enable_interrupts(INT_TIMER0); 
0AE2:  BSF    FF2.5
....................  
....................     setup_timer_1(T1_INTERNAL | T1_DIV_BY_2); //10.9 ms overflow 
0AE4:  MOVLW  95
0AE6:  MOVWF  FCD
....................     //setup_timer_1(T1_INTERNAL | T1_DIV_BY_8); //43.6 ms overflow 
....................     disable_interrupts(INT_TIMER1); 
0AE8:  BCF    F9D.0
0AEA:  GOTO   0AFA (RETURN)
....................     //set_timer0(26472); 
....................     //enable_interrupts(INT_TIMER0); 
.................... } 
....................  
.................... void Procesos_Init() //invocado al inicializar 
.................... { 
....................     pList[0].id = 0; 
*
0A34:  CLRF   21
....................     pList[1].id = 1; 
0A36:  MOVLW  01
0A38:  MOVWF  2C
....................     pList[2].id = 2; 
0A3A:  MOVLW  02
0A3C:  MOVWF  37
....................     pList[3].id = 3; 
0A3E:  MOVLW  03
0A40:  MOVWF  42
....................     pList[4].id = 4; 
0A42:  MOVLW  04
0A44:  MOVWF  4D
....................     pList[5].id = 5; 
0A46:  MOVLW  05
0A48:  MOVWF  58
....................  
....................     pList[0].estado = 2; 
0A4A:  MOVLW  02
0A4C:  MOVWF  1D
....................     pList[1].estado = 0; 
0A4E:  CLRF   28
....................     pList[2].estado = 0; 
0A50:  CLRF   33
....................     pList[3].estado = 0; 
0A52:  CLRF   3E
....................     pList[4].estado = 0; 
0A54:  CLRF   49
....................     pList[5].estado = 0; 
0A56:  CLRF   54
....................  
....................     pList[0].di = 0x4000; 
0A58:  MOVLW  40
0A5A:  MOVWF  18
0A5C:  CLRF   17
....................     pList[0].da = 0x4000; 
0A5E:  MOVWF  1C
0A60:  CLRF   1B
....................     pList[0].df = 0x4900; 
0A62:  MOVLW  49
0A64:  MOVWF  1A
0A66:  CLRF   19
....................  
....................     pList[1].di = 0x1000; 
0A68:  MOVLW  10
0A6A:  MOVWF  23
0A6C:  CLRF   22
....................     pList[1].da = 0x1000; 
0A6E:  MOVWF  27
0A70:  CLRF   26
....................     pList[1].df = 0x1150; // 
0A72:  MOVLW  11
0A74:  MOVWF  25
0A76:  MOVLW  50
0A78:  MOVWF  24
....................  
....................     pList[2].di = 0x1352; 
0A7A:  MOVLW  13
0A7C:  MOVWF  2E
0A7E:  MOVLW  52
0A80:  MOVWF  2D
....................     pList[2].da = 0x1352; 
0A82:  MOVLW  13
0A84:  MOVWF  32
0A86:  MOVLW  52
0A88:  MOVWF  31
....................     pList[2].df = 0x2000; 
0A8A:  MOVLW  20
0A8C:  MOVWF  30
0A8E:  CLRF   2F
....................  
....................     pList[3].di = 0x2010; 
0A90:  MOVWF  39
0A92:  MOVLW  10
0A94:  MOVWF  38
....................     pList[3].da = 0x2010; 
0A96:  MOVLW  20
0A98:  MOVWF  3D
0A9A:  MOVLW  10
0A9C:  MOVWF  3C
....................     pList[3].df = 0x2500; 
0A9E:  MOVLW  25
0AA0:  MOVWF  3B
0AA2:  CLRF   3A
....................  
....................     pList[4].di = 0x2510; // 
0AA4:  MOVWF  44
0AA6:  MOVLW  10
0AA8:  MOVWF  43
....................     pList[4].da = 0x2510; 
0AAA:  MOVLW  25
0AAC:  MOVWF  48
0AAE:  MOVLW  10
0AB0:  MOVWF  47
....................     pList[4].df = 0x3000; 
0AB2:  MOVLW  30
0AB4:  MOVWF  46
0AB6:  CLRF   45
....................  
....................     pList[5].di = 0x3010; // 
0AB8:  MOVWF  4F
0ABA:  MOVLW  10
0ABC:  MOVWF  4E
....................     pList[5].da = 0x3010; 
0ABE:  MOVLW  30
0AC0:  MOVWF  53
0AC2:  MOVLW  10
0AC4:  MOVWF  52
....................     pList[5].df = 0x3500; 
0AC6:  MOVLW  35
0AC8:  MOVWF  51
0ACA:  CLRF   50
....................  
....................  
....................  
....................     pCount = 6; 
0ACC:  MOVLW  06
0ACE:  MOVWF  x7A
0AD0:  GOTO   0AF6 (RETURN)
....................  
.................... } 
....................  
.................... void MCU_Init() 
.................... { 
....................     cmd = 0x0; 
*
0AEE:  CLRF   x77
....................     //printf("Conectado.............\n"); 
....................     //putc(13); 
....................     Port_Init(); //puertos B, C y D a cero 
0AF0:  BRA    09E4
....................     //inicio_ad(); 
....................     inicio_pwm(); 
0AF2:  BRA    0A14
....................     Procesos_Init(); //Configuración de direcciones y estado 
0AF4:  BRA    0A34
....................     inte_Init(); //Habilitación comunicación serial (a su cargo la variable proceso) 
0AF6:  BRA    0AD4
....................     Config_tmrs(); //Configura el TMR0 (registro T0CON), sin habilitar las interrupciones 
0AF8:  BRA    0ADE
0AFA:  GOTO   0B2E (RETURN)
....................  
....................     //lcd_init(); 
....................     //lcd_gotoxy(1, 2); 
....................     //lcd_putc("\f"); 
.................... } 
....................  
.................... void main(void) 
0AFE:  CLRF   FF8
0B00:  BCF    FD0.7
0B02:  BSF    07.7
0B04:  BSF    FB8.3
0B06:  MOVLW  08
0B08:  MOVWF  FAF
0B0A:  MOVLW  02
0B0C:  MOVWF  FB0
0B0E:  MOVLW  A6
0B10:  MOVWF  FAC
0B12:  MOVLW  90
0B14:  MOVWF  FAB
0B16:  CLRF   x77
0B18:  MOVLW  2D
0B1A:  MOVWF  x78
0B1C:  CLRF   x79
0B1E:  SETF   x7B
0B20:  MOVF   FC1,W
0B22:  ANDLW  C0
0B24:  IORLW  0F
0B26:  MOVWF  FC1
0B28:  MOVLW  07
0B2A:  MOVWF  FB4
.................... { 
....................     MCU_Init(); 
0B2C:  BRA    0AEE
....................  
....................     output_high(PIN_C1); 
0B2E:  BCF    F94.1
0B30:  BSF    F8B.1
....................  
....................     /*while(1) 
....................     { 
....................         printf("- os;"); 
....................     }*/ 
....................     //Task2(); 
....................     //lcd_gotoxy(2, 2); 
....................     //printf(lcd_putc, "#INICIO;"); 
....................  
.................... #asm 
....................     goto 0x4000 //El sistema permanece ejecutando este bucle 
0B32:  GOTO   4000
.................... #endasm 
.................... } 
....................  
0B36:  SLEEP 
.................... int IsLoaded(int pID) 
.................... { 
....................     int i; 
....................     for (i = 0; i < nCount; i++) 
*
05EC:  CLRF   x98
05EE:  MOVF   x79,W
05F0:  SUBWF  x98,W
05F2:  BC    0612
....................     { 
....................         if (pPila[i] == pID) 
05F4:  CLRF   03
05F6:  MOVF   x98,W
05F8:  ADDLW  6F
05FA:  MOVWF  FE9
05FC:  MOVLW  00
05FE:  ADDWFC 03,W
0600:  MOVWF  FEA
0602:  MOVF   x97,W
0604:  SUBWF  FEF,W
0606:  BNZ   060E
....................         { 
....................             return i; 
0608:  MOVFF  98,01
060C:  BRA    0616
....................         } 
060E:  INCF   x98,F
0610:  BRA    05EE
....................     } 
....................     return -1; 
0612:  MOVLW  FF
0614:  MOVWF  01
0616:  RETURN 0
.................... } 
....................  
.................... void LoadProcess(int pID) 
.................... { 
....................     // Añadir a la Pila de procesos 
....................     pPila[nCount] = pID; 
0618:  CLRF   03
061A:  MOVF   x79,W
061C:  ADDLW  6F
061E:  MOVWF  FE9
0620:  MOVLW  00
0622:  ADDWFC 03,W
0624:  MOVWF  FEA
0626:  MOVFF  97,FEF
....................     // Set status: 1, Cargado. 
....................     pList[pID].estado = 1; 
062A:  MOVF   x97,W
062C:  MULLW  0B
062E:  MOVF   FF3,W
0630:  CLRF   x99
0632:  MOVWF  x98
0634:  MOVLW  06
0636:  ADDWF  x98,W
0638:  MOVWF  01
063A:  MOVLW  00
063C:  ADDWFC x99,W
063E:  MOVWF  03
0640:  MOVF   01,W
0642:  ADDLW  17
0644:  MOVWF  FE9
0646:  MOVLW  00
0648:  ADDWFC 03,W
064A:  MOVWF  FEA
064C:  MOVLW  01
064E:  MOVWF  FEF
....................     // Notificar cambio 
....................     //printf("L%i;", pID); 
....................     printf("$%i %Lu %i;", pList[pID].id, pList[pID].da, pList[pID].estado); 
0650:  MOVF   x97,W
0652:  MULLW  0B
0654:  MOVF   FF3,W
0656:  CLRF   x99
0658:  MOVWF  x98
065A:  MOVLW  0A
065C:  ADDWF  x98,W
065E:  MOVWF  01
0660:  MOVLW  00
0662:  ADDWFC x99,W
0664:  MOVWF  03
0666:  MOVF   01,W
0668:  ADDLW  17
066A:  MOVWF  FE9
066C:  MOVLW  00
066E:  ADDWFC 03,W
0670:  MOVWF  FEA
0672:  MOVFF  FEF,98
0676:  MOVF   x97,W
0678:  MULLW  0B
067A:  MOVF   FF3,W
067C:  CLRF   x9A
067E:  MOVWF  x99
0680:  MOVLW  04
0682:  ADDWF  x99,W
0684:  MOVWF  01
0686:  MOVLW  00
0688:  ADDWFC x9A,W
068A:  MOVWF  03
068C:  MOVF   01,W
068E:  ADDLW  17
0690:  MOVWF  FE9
0692:  MOVLW  00
0694:  ADDWFC 03,W
0696:  MOVWF  FEA
0698:  MOVFF  FEC,9A
069C:  MOVF   FED,F
069E:  MOVFF  FEF,99
06A2:  MOVF   x97,W
06A4:  MULLW  0B
06A6:  MOVF   FF3,W
06A8:  CLRF   x9C
06AA:  MOVWF  x9B
06AC:  MOVLW  06
06AE:  ADDWF  x9B,W
06B0:  MOVWF  01
06B2:  MOVLW  00
06B4:  ADDWFC x9C,W
06B6:  MOVWF  03
06B8:  MOVF   01,W
06BA:  ADDLW  17
06BC:  MOVWF  FE9
06BE:  MOVLW  00
06C0:  ADDWFC 03,W
06C2:  MOVWF  FEA
06C4:  MOVFF  FEF,9B
06C8:  MOVLW  24
06CA:  BTFSS  F9E.4
06CC:  BRA    06CA
06CE:  MOVWF  FAD
06D0:  CLRF   16
06D2:  BTFSC  FF2.7
06D4:  BSF    16.7
06D6:  BCF    FF2.7
06D8:  MOVFF  98,9E
06DC:  MOVLW  18
06DE:  MOVWF  x9F
06E0:  RCALL  00D6
06E2:  BTFSC  16.7
06E4:  BSF    FF2.7
06E6:  MOVLW  20
06E8:  BTFSS  F9E.4
06EA:  BRA    06E8
06EC:  MOVWF  FAD
06EE:  MOVLW  10
06F0:  MOVWF  FE9
06F2:  CLRF   16
06F4:  BTFSC  FF2.7
06F6:  BSF    16.7
06F8:  BCF    FF2.7
06FA:  MOVFF  9A,9F
06FE:  MOVFF  99,9E
0702:  RCALL  0188
0704:  BTFSC  16.7
0706:  BSF    FF2.7
0708:  MOVLW  20
070A:  BTFSS  F9E.4
070C:  BRA    070A
070E:  MOVWF  FAD
0710:  CLRF   16
0712:  BTFSC  FF2.7
0714:  BSF    16.7
0716:  BCF    FF2.7
0718:  MOVFF  9B,9E
071C:  MOVLW  18
071E:  MOVWF  x9F
0720:  RCALL  00D6
0722:  BTFSC  16.7
0724:  BSF    FF2.7
0726:  MOVLW  3B
0728:  BTFSS  F9E.4
072A:  BRA    0728
072C:  MOVWF  FAD
....................     // Se incrementa el numero de procesos 
....................     nCount++; 
072E:  INCF   x79,F
0730:  GOTO   40C2 (RETURN)
.................... } 
....................  
.................... void UnLoadProcess(int pID, int index) 
.................... { 
....................     // Se retira el proces0 de la Pila 
....................     int i; 
....................     for (i = index; i < nCount - 1; i++) 
0734:  MOVFF  98,99
0738:  MOVLW  01
073A:  SUBWF  x79,W
073C:  SUBWF  x99,W
073E:  BC    0774
....................     { 
....................         pPila[i] = pPila[i + 1]; 
0740:  CLRF   03
0742:  MOVF   x99,W
0744:  ADDLW  6F
0746:  MOVWF  01
0748:  MOVLW  00
074A:  ADDWFC 03,F
074C:  MOVFF  03,9B
0750:  MOVLW  01
0752:  ADDWF  x99,W
0754:  CLRF   03
0756:  ADDLW  6F
0758:  MOVWF  FE9
075A:  MOVLW  00
075C:  ADDWFC 03,W
075E:  MOVWF  FEA
0760:  MOVFF  FEF,9C
0764:  MOVFF  9B,FEA
0768:  MOVFF  01,FE9
076C:  MOVFF  9C,FEF
0770:  INCF   x99,F
0772:  BRA    0738
....................     } 
....................     // Set status: 1, Cargado. 
....................     pList[pID].estado = 0; 
0774:  MOVF   x97,W
0776:  MULLW  0B
0778:  MOVF   FF3,W
077A:  CLRF   x9B
077C:  MOVWF  x9A
077E:  MOVLW  06
0780:  ADDWF  x9A,W
0782:  MOVWF  01
0784:  MOVLW  00
0786:  ADDWFC x9B,W
0788:  MOVWF  03
078A:  MOVF   01,W
078C:  ADDLW  17
078E:  MOVWF  FE9
0790:  MOVLW  00
0792:  ADDWFC 03,W
0794:  MOVWF  FEA
0796:  CLRF   FEF
....................     // Reset 
....................     pList[pID].da = pList[pID].di; 
0798:  MOVF   x97,W
079A:  MULLW  0B
079C:  MOVF   FF3,W
079E:  CLRF   x9B
07A0:  MOVWF  x9A
07A2:  MOVLW  04
07A4:  ADDWF  x9A,W
07A6:  MOVWF  01
07A8:  MOVLW  00
07AA:  ADDWFC x9B,W
07AC:  MOVWF  03
07AE:  MOVF   01,W
07B0:  ADDLW  17
07B2:  MOVWF  01
07B4:  MOVLW  00
07B6:  ADDWFC 03,F
07B8:  MOVFF  03,9B
07BC:  MOVF   x97,W
07BE:  MULLW  0B
07C0:  MOVF   FF3,W
07C2:  CLRF   x9D
07C4:  MOVWF  x9C
07C6:  MOVLW  17
07C8:  ADDWF  x9C,W
07CA:  MOVWF  FE9
07CC:  MOVLW  00
07CE:  ADDWFC x9D,W
07D0:  MOVWF  FEA
07D2:  MOVFF  FEC,03
07D6:  MOVF   FED,F
07D8:  MOVFF  FEF,9E
07DC:  MOVFF  9B,FEA
07E0:  MOVFF  01,FE9
07E4:  MOVFF  03,FEC
07E8:  MOVF   FED,F
07EA:  MOVFF  9E,FEF
....................     // Notificar cambio 
....................  
....................     // Apagar el sistema 
....................     switch (pID) 
07EE:  MOVF   x97,W
07F0:  ADDLW  FA
07F2:  BC    084C
07F4:  ADDLW  06
07F6:  GOTO   0932
....................     { 
....................         case 0: 
....................  
....................             break; 
07FA:  BRA    084C
....................         case 1: 
....................         { 
....................             output_low(PIN_C0); 
07FC:  BCF    F94.0
07FE:  BCF    F8B.0
....................             output_low(PIN_D3); 
0800:  BCF    F95.3
0802:  BCF    F8C.3
....................             output_low(PIN_A2); 
0804:  BCF    F92.2
0806:  BCF    F89.2
....................             output_low(PIN_A3); 
0808:  BCF    F92.3
080A:  BCF    F89.3
....................             nCount--; 
080C:  DECF   x79,F
....................         } 
....................             break; 
080E:  BRA    084C
....................         case 2: 
....................         { 
....................             output_b(0xff); 
0810:  CLRF   F93
0812:  SETF   F8A
....................             nCount--; 
0814:  DECF   x79,F
....................         } 
....................             break; 
0816:  BRA    084C
....................         case 3: 
....................         { 
....................             CCPR1L = 0x00; 
0818:  CLRF   FBE
....................             CCP5 = 0; 
081A:  BCF    FBD.5
....................             CCP4 = 0; 
081C:  BCF    FBD.4
....................             nCount--; 
081E:  DECF   x79,F
....................             break; 
0820:  BRA    084C
....................         } 
....................         case 4: 
....................         { 
....................             output_low(PIN_D1); 
0822:  BCF    F95.1
0824:  BCF    F8C.1
....................             output_low(PIN_D2); 
0826:  BCF    F95.2
0828:  BCF    F8C.2
....................             output_low(PIN_D4); 
082A:  BCF    F95.4
082C:  BCF    F8C.4
....................             output_low(PIN_D5); 
082E:  BCF    F95.5
0830:  BCF    F8C.5
....................             output_low(PIN_D6); 
0832:  BCF    F95.6
0834:  BCF    F8C.6
....................             output_low(PIN_D7); 
0836:  BCF    F95.7
0838:  BCF    F8C.7
....................             nCount--; 
083A:  DECF   x79,F
....................         } 
....................             break; 
083C:  BRA    084C
....................         case 5: 
....................         { 
....................             output_low(PIN_E0); 
083E:  BCF    F96.0
0840:  BCF    F8D.0
....................             output_low(PIN_E1); 
0842:  BCF    F96.1
0844:  BCF    F8D.1
....................             output_low(PIN_E2); 
0846:  BCF    F96.2
0848:  BCF    F8D.2
....................             nCount--; 
084A:  DECF   x79,F
....................         } 
....................             break; 
....................     } 
....................     //printf("U%i %i;", pID, index); 
....................     printf("$%i %Lu %i;", pList[pID].id, pList[pID].da, pList[pID].estado); 
084C:  MOVF   x97,W
084E:  MULLW  0B
0850:  MOVF   FF3,W
0852:  CLRF   x9B
0854:  MOVWF  x9A
0856:  MOVLW  0A
0858:  ADDWF  x9A,W
085A:  MOVWF  01
085C:  MOVLW  00
085E:  ADDWFC x9B,W
0860:  MOVWF  03
0862:  MOVF   01,W
0864:  ADDLW  17
0866:  MOVWF  FE9
0868:  MOVLW  00
086A:  ADDWFC 03,W
086C:  MOVWF  FEA
086E:  MOVFF  FEF,9A
0872:  MOVF   x97,W
0874:  MULLW  0B
0876:  MOVF   FF3,W
0878:  CLRF   x9C
087A:  MOVWF  x9B
087C:  MOVLW  04
087E:  ADDWF  x9B,W
0880:  MOVWF  01
0882:  MOVLW  00
0884:  ADDWFC x9C,W
0886:  MOVWF  03
0888:  MOVF   01,W
088A:  ADDLW  17
088C:  MOVWF  FE9
088E:  MOVLW  00
0890:  ADDWFC 03,W
0892:  MOVWF  FEA
0894:  MOVFF  FEC,9C
0898:  MOVF   FED,F
089A:  MOVFF  FEF,9B
089E:  MOVF   x97,W
08A0:  MULLW  0B
08A2:  MOVF   FF3,W
08A4:  CLRF   x9E
08A6:  MOVWF  x9D
08A8:  MOVLW  06
08AA:  ADDWF  x9D,W
08AC:  MOVWF  01
08AE:  MOVLW  00
08B0:  ADDWFC x9E,W
08B2:  MOVWF  03
08B4:  MOVF   01,W
08B6:  ADDLW  17
08B8:  MOVWF  FE9
08BA:  MOVLW  00
08BC:  ADDWFC 03,W
08BE:  MOVWF  FEA
08C0:  MOVFF  FEF,9D
08C4:  MOVLW  24
08C6:  BTFSS  F9E.4
08C8:  BRA    08C6
08CA:  MOVWF  FAD
08CC:  CLRF   16
08CE:  BTFSC  FF2.7
08D0:  BSF    16.7
08D2:  BCF    FF2.7
08D4:  MOVFF  9A,9E
08D8:  MOVLW  18
08DA:  MOVWF  x9F
08DC:  CALL   00D6
08E0:  BTFSC  16.7
08E2:  BSF    FF2.7
08E4:  MOVLW  20
08E6:  BTFSS  F9E.4
08E8:  BRA    08E6
08EA:  MOVWF  FAD
08EC:  MOVLW  10
08EE:  MOVWF  FE9
08F0:  CLRF   16
08F2:  BTFSC  FF2.7
08F4:  BSF    16.7
08F6:  BCF    FF2.7
08F8:  MOVFF  9C,9F
08FC:  MOVFF  9B,9E
0900:  RCALL  0188
0902:  BTFSC  16.7
0904:  BSF    FF2.7
0906:  MOVLW  20
0908:  BTFSS  F9E.4
090A:  BRA    0908
090C:  MOVWF  FAD
090E:  CLRF   16
0910:  BTFSC  FF2.7
0912:  BSF    16.7
0914:  BCF    FF2.7
0916:  MOVFF  9D,9E
091A:  MOVLW  18
091C:  MOVWF  x9F
091E:  CALL   00D6
0922:  BTFSC  16.7
0924:  BSF    FF2.7
0926:  MOVLW  3B
0928:  BTFSS  F9E.4
092A:  BRA    0928
092C:  MOVWF  FAD
092E:  GOTO   40E4 (RETURN)
....................     // Se incrementa el numero de procesos 
....................  
....................  
.................... } 
....................  
....................  
.................... // Up to 10 
....................  
.................... // [xx] 
.................... // 
.................... // 0b00001111 
.................... // 0b00xxxxxx [00]: None 
.................... // 0b01xxxxxx [01]: Load 
.................... // 0b10xxxxxx [10]: UnLoad 
.................... // 0b11xxxxxx [11]: Read Quantum 
....................  
.................... //0bxx[0-15]xx: 15 procesos admitidos 
.................... // 0bxx0000xx [0000]: System 
.................... // 0bxx0001xx [0001]: P1 
.................... // 0bxx0010xx [0010]: P2 
.................... // 0bxx0011xx [0011]: P3 
.................... // 0bxx0100xx [0100]: P4 
.................... #ORG 0x4000, 0x4900 
....................  
.................... void Inicio_SO() 
.................... { 
....................     int command, process, other; 
....................  
....................     while (TRUE) 
....................     { 
....................         //XXYYYYUU 
....................         //command = (cmd) & 0b00000011; 
....................         //process = (cmd >> 2) & 0b00001111; 
....................         //other = (cmd >> 6) & 0b00000011; 
....................         output_toggle(PIN_D0); 
*
4000:  BCF    F95.0
4002:  BTG    F8C.0
....................         //OUTPUT_TOGGLE(PIND_D0); 
....................         //printf("-os;"); 
....................         if (cmd != 0x00) 
4004:  MOVF   x77,F
4006:  BTFSC  FD8.2
4008:  BRA    40EA
....................         { 
....................  
....................  
....................             int gol; 
....................             gol = 0; 
400A:  CLRF   x95
....................  
....................             switch (cmd) 
400C:  MOVLW  31
400E:  SUBWF  x77,W
4010:  ADDLW  EB
4012:  BC    4096
4014:  ADDLW  15
4016:  GOTO   096A
....................             { 
....................                 case '1': 
....................  
....................                     gol = 1; 
401A:  MOVLW  01
401C:  MOVWF  x95
....................                     command = 1; 
401E:  MOVWF  x92
....................                     process = 1; 
4020:  MOVWF  x93
....................                     break; 
4022:  BRA    4096
....................  
....................  
....................                 case '2': 
....................  
....................                     gol = 1; 
4024:  MOVLW  01
4026:  MOVWF  x95
....................                     command = 1; 
4028:  MOVWF  x92
....................                     process = 2; 
402A:  MOVLW  02
402C:  MOVWF  x93
....................                     break; 
402E:  BRA    4096
....................  
....................  
....................                 case '3': 
....................  
....................                     gol = 1; 
4030:  MOVLW  01
4032:  MOVWF  x95
....................                     command = 1; 
4034:  MOVWF  x92
....................                     process = 3; 
4036:  MOVLW  03
4038:  MOVWF  x93
....................                     break; 
403A:  BRA    4096
....................  
....................  
....................                 case '4': 
....................  
....................                     gol = 1; 
403C:  MOVLW  01
403E:  MOVWF  x95
....................                     command = 1; 
4040:  MOVWF  x92
....................                     process = 4; 
4042:  MOVLW  04
4044:  MOVWF  x93
....................                     break; 
4046:  BRA    4096
....................  
....................  
....................                 case '5': 
....................  
....................                     gol = 1; 
4048:  MOVLW  01
404A:  MOVWF  x95
....................                     command = 1; 
404C:  MOVWF  x92
....................                     process = 5; 
404E:  MOVLW  05
4050:  MOVWF  x93
....................                     break; 
4052:  BRA    4096
....................  
....................  
....................                 case 'A': 
....................  
....................                     gol = 1; 
4054:  MOVLW  01
4056:  MOVWF  x95
....................                     command = 2; 
4058:  MOVLW  02
405A:  MOVWF  x92
....................                     process = 1; 
405C:  MOVLW  01
405E:  MOVWF  x93
....................                     break; 
4060:  BRA    4096
....................  
....................  
....................                 case 'B': 
....................  
....................                     gol = 1; 
4062:  MOVLW  01
4064:  MOVWF  x95
....................                     command = 2; 
4066:  MOVLW  02
4068:  MOVWF  x92
....................                     process = 2; 
406A:  MOVWF  x93
....................                     break; 
406C:  BRA    4096
....................  
....................  
....................                 case 'C': 
....................  
....................                     gol = 1; 
406E:  MOVLW  01
4070:  MOVWF  x95
....................                     command = 2; 
4072:  MOVLW  02
4074:  MOVWF  x92
....................                     process = 3; 
4076:  MOVLW  03
4078:  MOVWF  x93
....................                     break; 
407A:  BRA    4096
....................  
....................  
....................                 case 'D': 
....................  
....................                     gol = 1; 
407C:  MOVLW  01
407E:  MOVWF  x95
....................                     command = 2; 
4080:  MOVLW  02
4082:  MOVWF  x92
....................                     process = 4; 
4084:  MOVLW  04
4086:  MOVWF  x93
....................                     break; 
4088:  BRA    4096
....................  
....................  
....................                 case 'E': 
....................  
....................                     gol = 1; 
408A:  MOVLW  01
408C:  MOVWF  x95
....................                     command = 2; 
408E:  MOVLW  02
4090:  MOVWF  x92
....................                     process = 5; 
4092:  MOVLW  05
4094:  MOVWF  x93
....................                     break; 
....................  
....................  
....................             } 
....................  
....................             if (gol == 1) 
4096:  DECFSZ x95,W
4098:  BRA    40EA
....................             { 
....................                 switch (command) 
409A:  MOVF   x92,W
409C:  ADDLW  FC
409E:  BC    40E8
40A0:  ADDLW  04
40A2:  GOTO   09B8
....................                 { 
....................                         // None 
....................                     case 0: 
....................                         cmd = 0x00; 
40A6:  CLRF   x77
....................                         break; 
40A8:  BRA    40E8
....................                         // Load 
....................                     case 1: 
....................                         cmd = 0x00; 
40AA:  CLRF   x77
....................  
....................                         // Proceso no cargado 
....................                         if (IsLoaded(process) == -1) 
40AC:  MOVFF  93,97
40B0:  CALL   05EC
40B4:  MOVF   01,W
40B6:  SUBLW  FF
40B8:  BNZ   40C2
....................                         { 
....................                             LoadProcess(process); 
40BA:  MOVFF  93,97
40BE:  GOTO   0618
....................                         } 
....................  
....................                         break; 
40C2:  BRA    40E8
....................                         // UnLoad 
....................                     case 2: 
....................                         //printf("#2;"); 
....................  
....................                         cmd = 0x00; 
40C4:  CLRF   x77
....................  
....................  
....................                         // Proceso cargado 
....................                         int indexProcess = IsLoaded(process); 
40C6:  MOVFF  93,97
40CA:  CALL   05EC
40CE:  MOVFF  01,96
....................                         if (indexProcess != -1) 
40D2:  MOVF   x96,W
40D4:  SUBLW  FF
40D6:  BZ    40E4
....................                         { 
....................                             UnLoadProcess(process, indexProcess); 
40D8:  MOVFF  93,97
40DC:  MOVFF  96,98
40E0:  GOTO   0734
....................                         } 
....................  
....................                         break; 
40E4:  BRA    40E8
....................                         // None 
....................                     case 3: 
....................                         cmd = 0x00; 
40E6:  CLRF   x77
....................                         break; 
....................                 } 
....................                 cmd = 0x00; 
40E8:  CLRF   x77
....................             } 
....................         } 
....................         //activar_timer(); 
....................         if (nCount > 0) 
40EA:  MOVF   x79,F
40EC:  BTFSC  FD8.2
40EE:  BRA    426A
....................         { 
....................             desactivar_timer(); 
40F0:  CALL   0342
....................  
....................             //int est; 
....................             //est = pList[pPila[0]].estado; 
....................             //pList[pPila[0]].estado = 2; 
....................  
....................  
....................             if (pList[pPila[0]].estado == 1) 
40F4:  MOVF   x6F,W
40F6:  MULLW  0B
40F8:  MOVF   FF3,W
40FA:  CLRF   x98
40FC:  MOVWF  x97
40FE:  MOVLW  06
4100:  ADDWF  x97,W
4102:  MOVWF  01
4104:  MOVLW  00
4106:  ADDWFC x98,W
4108:  MOVWF  03
410A:  MOVF   01,W
410C:  ADDLW  17
410E:  MOVWF  FE9
4110:  MOVLW  00
4112:  ADDWFC 03,W
4114:  MOVWF  FEA
4116:  DECFSZ FEF,W
4118:  BRA    4170
....................             { 
....................                 pList[pPila[0]].estado = 2; 
411A:  MOVF   x6F,W
411C:  MULLW  0B
411E:  MOVF   FF3,W
4120:  CLRF   x98
4122:  MOVWF  x97
4124:  MOVLW  06
4126:  ADDWF  x97,W
4128:  MOVWF  01
412A:  MOVLW  00
412C:  ADDWFC x98,W
412E:  MOVWF  03
4130:  MOVF   01,W
4132:  ADDLW  17
4134:  MOVWF  FE9
4136:  MOVLW  00
4138:  ADDWFC 03,W
413A:  MOVWF  FEA
413C:  MOVLW  02
413E:  MOVWF  FEF
....................                 //printf("$%i %Lu %i;", pList[pPila[0]].id, pList[pPila[0]].da, pList[pPila[0]].estado); 
....................  
....................                 activar_timer(); 
4140:  CALL   0962
....................                 goto_address(pList[pPila[0]].di); 
4144:  MOVF   x6F,W
4146:  MULLW  0B
4148:  MOVF   FF3,W
414A:  CLRF   x98
414C:  MOVWF  x97
414E:  MOVLW  17
4150:  ADDWF  x97,W
4152:  MOVWF  FE9
4154:  MOVLW  00
4156:  ADDWFC x98,W
4158:  MOVWF  FEA
415A:  MOVFF  FEC,9A
415E:  MOVF   FED,F
4160:  MOVFF  FEF,99
4164:  MOVFF  9A,FFA
4168:  MOVFF  99,FE8
416C:  MOVWF  FF9
....................  
....................             } 
416E:  BRA    426A
....................             else if (pList[pPila[0]].estado == 2) 
4170:  MOVF   x6F,W
4172:  MULLW  0B
4174:  MOVF   FF3,W
4176:  CLRF   x98
4178:  MOVWF  x97
417A:  MOVLW  06
417C:  ADDWF  x97,W
417E:  MOVWF  01
4180:  MOVLW  00
4182:  ADDWFC x98,W
4184:  MOVWF  03
4186:  MOVF   01,W
4188:  ADDLW  17
418A:  MOVWF  FE9
418C:  MOVLW  00
418E:  ADDWFC 03,W
4190:  MOVWF  FEA
4192:  MOVF   FEF,W
4194:  SUBLW  02
4196:  BNZ   426A
....................             { 
....................                 //printf("$%i %Lu %i;", pList[pPila[0]].id, pList[pPila[0]].da, pList[pPila[0]].estado); 
....................  
....................                 status = pList[pPila[0]].status; 
4198:  MOVF   x6F,W
419A:  MULLW  0B
419C:  MOVF   FF3,W
419E:  CLRF   x98
41A0:  MOVWF  x97
41A2:  MOVLW  08
41A4:  ADDWF  x97,W
41A6:  MOVWF  01
41A8:  MOVLW  00
41AA:  ADDWFC x98,W
41AC:  MOVWF  03
41AE:  MOVF   01,W
41B0:  ADDLW  17
41B2:  MOVWF  FE9
41B4:  MOVLW  00
41B6:  ADDWFC 03,W
41B8:  MOVWF  FEA
41BA:  MOVFF  FEF,FD8
....................                 wreg = pList[pPila[0]].w_reg; 
41BE:  MOVF   x6F,W
41C0:  MULLW  0B
41C2:  MOVF   FF3,W
41C4:  CLRF   x98
41C6:  MOVWF  x97
41C8:  MOVLW  07
41CA:  ADDWF  x97,W
41CC:  MOVWF  01
41CE:  MOVLW  00
41D0:  ADDWFC x98,W
41D2:  MOVWF  03
41D4:  MOVF   01,W
41D6:  ADDLW  17
41D8:  MOVWF  FE9
41DA:  MOVLW  00
41DC:  ADDWFC 03,W
41DE:  MOVWF  FEA
41E0:  MOVFF  FEF,FE8
....................                 bsr = pList[pPila[0]].bsr; 
41E4:  MOVF   x6F,W
41E6:  MULLW  0B
41E8:  MOVF   FF3,W
41EA:  CLRF   x98
41EC:  MOVWF  x97
41EE:  MOVLW  09
41F0:  ADDWF  x97,W
41F2:  MOVWF  01
41F4:  MOVLW  00
41F6:  ADDWFC x98,W
41F8:  MOVWF  03
41FA:  MOVF   01,W
41FC:  ADDLW  17
41FE:  MOVWF  FE9
4200:  MOVLW  00
4202:  ADDWFC 03,W
4204:  MOVWF  FEA
4206:  MOVFF  FEF,FE0
....................                 wreg = pList[pPila[0]].w_reg; 
420A:  MOVF   x6F,W
420C:  MULLW  0B
420E:  MOVF   FF3,W
4210:  CLRF   x98
4212:  MOVWF  x97
4214:  MOVLW  07
4216:  ADDWF  x97,W
4218:  MOVWF  01
421A:  MOVLW  00
421C:  ADDWFC x98,W
421E:  MOVWF  03
4220:  MOVF   01,W
4222:  ADDLW  17
4224:  MOVWF  FE9
4226:  MOVLW  00
4228:  ADDWFC 03,W
422A:  MOVWF  FEA
422C:  MOVFF  FEF,FE8
....................                 //num = pList[pPila[0]].da; 
....................                 //printf("-g;"); 
....................                 activar_timer(); 
4230:  CALL   0962
....................  
....................                 //enable_interrupts(INT_TIMER1); 
....................  
....................                 goto_address(pList[pPila[0]].da); 
4234:  MOVF   x6F,W
4236:  MULLW  0B
4238:  MOVF   FF3,W
423A:  CLRF   x98
423C:  MOVWF  x97
423E:  MOVLW  04
4240:  ADDWF  x97,W
4242:  MOVWF  01
4244:  MOVLW  00
4246:  ADDWFC x98,W
4248:  MOVWF  03
424A:  MOVF   01,W
424C:  ADDLW  17
424E:  MOVWF  FE9
4250:  MOVLW  00
4252:  ADDWFC 03,W
4254:  MOVWF  FEA
4256:  MOVFF  FEC,98
425A:  MOVF   FED,F
425C:  MOVFF  FEF,97
4260:  MOVFF  98,FFA
4264:  MOVFF  97,FE8
4268:  MOVWF  FF9
....................             } 
....................  
....................  
....................  
....................  
....................         } 
426A:  BRA    4000
....................     } 
426C:  RETURN 0
.................... } 
....................  
....................  
....................  

Configuration Fuses:
   Word  1: CC04   PLL5 CPUDIV1 NOUSBDIV HS FCMEN IESO
   Word  2: 0E38   PUT NOBROWNOUT BORV21 VREGEN NOWDT WDT128
   Word  3: 8700   CCP2C1 PBADEN LPT1OSC MCLR
   Word  4: 00A1   STVREN NOLVP ICSP2 NOXINST NODEBUG
   Word  5: C00F   NOPROTECT NOCPB NOCPD
   Word  6: E00F   NOWRT NOWRTC NOWRTB NOWRTD
   Word  7: 400F   NOEBTR NOEBTRB
